ARM Linker, 5.03 [Build 76] [MDK-ARM Standard]

==============================================================================

Section Cross References

    3g_log.o(.text) refers to kservice.o(.text) for rt_kprintf
    3g_log.o(.text) refers to 3g_log.o(.constdata) for .constdata
    3g_watchdog.o(.text) refers to stm32f2xx_rcc.o(.text) for RCC_AHB1PeriphClockCmd
    3g_watchdog.o(.text) refers to stm32f2xx_gpio.o(.text) for GPIO_Init
    3g_watchdog.o(.text) refers to stm32f2xx_iwdg.o(.text) for IWDG_WriteAccessCmd
    3g_watchdog.o(.text) refers to timer.o(.text) for rt_timer_init
    3g_watchdog.o(.text) refers to context_rvds.o(.text) for rt_hw_interrupt_disable
    3g_watchdog.o(.text) refers to stm32f2xx_flash.o(.text) for FLASH_OB_Unlock
    3g_watchdog.o(.text) refers to 3g_watchdog.o(.bss) for .bss
    3g_watchdog.o(.text) refers to net_app.o(.data) for net_recv_fine_flag
    3g_watchdog.o(.text) refers to 3g_watchdog.o(.data) for .data
    application.o(.text) refers to platform.o(.text) for rt_platform_init
    application.o(.text) refers to components.o(.text) for rt_components_init
    application.o(.text) refers to dfs_fs.o(.text) for dfs_mount
    application.o(.text) refers to kservice.o(.text) for rt_kprintf
    application.o(.text) refers to bootcfg.o(.text) for bootsh_init
    application.o(.text) refers to 3g_watchdog.o(.text) for startup_hw_watchdog_feeding_timer
    application.o(.text) refers to led_indicator.o(.text) for init_sys_status_indicator_lamps
    application.o(.text) refers to ipc.o(.text) for rt_mq_init
    application.o(.text) refers to mbus_app.o(.text) for init_mbus_msg_queue
    application.o(.text) refers to location_data.o(.text) for ldata_state_init
    application.o(.text) refers to board.o(.text) for rt_hw_board_reboot
    application.o(.text) refers to bsmac_parser.o(.text) for start_bsmac_work
    application.o(.text) refers to msg_center.o(.text) for start_msg_analyser_work
    application.o(.text) refers to net_app.o(.text) for start_net_work
    application.o(.text) refers to thread.o(.text) for rt_thread_create
    application.o(.text) refers to msg_center.o(.bss) for u8MsgPool
    application.o(.text) refers to msg_center.o(.bss) for msg_analyser_mq
    application.o(.text) refers to net_app.o(.bss) for u8NetPool
    application.o(.text) refers to net_app.o(.bss) for net_mq
    application.o(.text) refers to bootcfg.o(.bss) for sys_option_sem
    bootcfg.o(.text) refers to kservice.o(.text) for rt_kprintf
    bootcfg.o(.text) refers to ipc.o(.text) for rt_sem_release
    bootcfg.o(.text) refers to device.o(.text) for rt_device_find
    bootcfg.o(.text) refers to bootcfg.o(.data) for .data
    bootcfg.o(.text) refers to bootcfg.o(.constdata) for .constdata
    bootcfg.o(.text) refers to net_app.o(.text) for app_display_ipaddr
    bootcfg.o(.text) refers to ip_addr.o(.text) for ipaddr_aton
    bootcfg.o(.text) refers to strncmp.o(.text) for strncmp
    bootcfg.o(.text) refers to strchr.o(.text) for strchr
    bootcfg.o(.text) refers to atoi.o(.text) for atoi
    bootcfg.o(.text) refers to strcasecmp.o(.text) for strcasecmp
    bootcfg.o(.text) refers to stm32_flash.o(.text) for flash_save
    bootcfg.o(.text) refers to board.o(.text) for rt_hw_board_reboot
    bootcfg.o(.text) refers to strncasecmp.o(.text) for strncasecmp
    bootcfg.o(.text) refers to rt_memcpy_w.o(.text) for __aeabi_memcpy4
    bootcfg.o(.text) refers to strlen.o(.text) for strlen
    bootcfg.o(.text) refers to mem.o(.text) for rt_malloc
    bootcfg.o(.text) refers to rt_memclr_w.o(.text) for __aeabi_memclr4
    bootcfg.o(.text) refers to bootcfg.o(.bss) for .bss
    bootcfg.o(.text) refers to thread.o(.text) for rt_thread_create
    bootcfg.o(.text) refers to rt_ctype_table.o(.text) for __rt_ctype_table
    bootcfg.o(.text) refers to strncpy.o(.text) for strncpy
    bootcfg.o(.constdata) refers to bootcfg.o(.conststring) for .conststring
    bootcfg.o(.constdata) refers to bootcfg.o(.text) for _ipmkgw_process
    bootcfg.o(.constdata) refers to bootcfg.o(.bss) for sys_option
    bsmac_parser.o(.text) refers to _printf_percent.o(.ARM.Collect$$_printf_percent$$00000000) for _printf_percent
    bsmac_parser.o(.text) refers to _printf_d.o(.ARM.Collect$$_printf_percent$$00000009) for _printf_d
    bsmac_parser.o(.text) refers to _printf_dec.o(.text) for _printf_int_dec
    bsmac_parser.o(.text) refers to kservice.o(.text) for rt_kprintf
    bsmac_parser.o(.text) refers to rt_memcpy_v6.o(.text) for __aeabi_memcpy
    bsmac_parser.o(.text) refers to crc.o(.text) for CRC16
    bsmac_parser.o(.text) refers to device.o(.text) for rt_device_write
    bsmac_parser.o(.text) refers to clock.o(.text) for rt_tick_get
    bsmac_parser.o(.text) refers to rt_memclr_w.o(.text) for __aeabi_memclr4
    bsmac_parser.o(.text) refers to noretval__2snprintf.o(.text) for __2snprintf
    bsmac_parser.o(.text) refers to net_app.o(.text) for net_report_running_state_msg
    bsmac_parser.o(.text) refers to bsmac_parser.o(.bss) for .bss
    bsmac_parser.o(.text) refers to bootcfg.o(.bss) for sys_option
    bsmac_parser.o(.text) refers to bsmac_parser.o(.data) for .data
    bsmac_parser.o(.text) refers to ipc.o(.text) for rt_mq_send
    bsmac_parser.o(.text) refers to led_indicator.o(.text) for light_up_rssi_modules_data_indicator
    bsmac_parser.o(.text) refers to stm32f2xx_rcc.o(.text) for RCC_AHB1PeriphClockCmd
    bsmac_parser.o(.text) refers to stm32f2xx_gpio.o(.text) for GPIO_Init
    bsmac_parser.o(.text) refers to rtc.o(.text) for time
    bsmac_parser.o(.text) refers to msg_center.o(.bss) for msg_analyser_mq
    bsmac_parser.o(.text) refers to net_app.o(.bss) for net_mq
    bsmac_parser.o(.text) refers to bsmac_parser.o(.constdata) for .constdata
    bsmac_parser.o(.text) refers to msg_center.o(.text) for msg_analyser_register
    bsmac_parser.o(.text) refers to 3g_watchdog.o(.text) for feed_watchdog
    bsmac_parser.o(.text) refers to thread.o(.text) for rt_thread_delay
    bsmac_parser.o(.text) refers to scheduler.o(.text) for rt_enter_critical
    bsmac_parser.o(.text) refers to 3g_watchdog.o(.data) for iwdg_net_feed_flag
    led_indicator.o(.text) refers to stm32f2xx_rcc.o(.text) for RCC_AHB1PeriphClockCmd
    led_indicator.o(.text) refers to stm32f2xx_gpio.o(.text) for GPIO_Init
    led_indicator.o(.text) refers to timer.o(.text) for rt_timer_init
    led_indicator.o(.text) refers to led_indicator.o(.bss) for .bss
    location_data.o(.text) refers to rt_memclr_w.o(.text) for __aeabi_memclr4
    location_data.o(.text) refers to dfs_posix.o(.text) for unlink
    location_data.o(.text) refers to kservice.o(.text) for rt_get_errno
    location_data.o(.text) refers to location_data.o(.bss) for .bss
    location_data.o(.text) refers to location_data.o(.data) for .data
    location_data.o(.text) refers to location_data.o(.constdata) for .constdata
    mbus_app.o(.text) refers to _printf_percent.o(.ARM.Collect$$_printf_percent$$00000000) for _printf_percent
    mbus_app.o(.text) refers to _printf_s.o(.ARM.Collect$$_printf_percent$$00000014) for _printf_s
    mbus_app.o(.text) refers to _printf_str.o(.text) for _printf_str
    mbus_app.o(.text) refers to kservice.o(.text) for rt_kprintf
    mbus_app.o(.text) refers to ipc.o(.text) for rt_mq_send
    mbus_app.o(.text) refers to rt_memclr.o(.text) for __aeabi_memclr
    mbus_app.o(.text) refers to rtc.o(.text) for time
    mbus_app.o(.text) refers to rt_memcpy_v6.o(.text) for __aeabi_memcpy
    mbus_app.o(.text) refers to rt_memclr_w.o(.text) for __aeabi_memclr4
    mbus_app.o(.text) refers to noretval__2snprintf.o(.text) for __2snprintf
    mbus_app.o(.text) refers to strlen.o(.text) for strlen
    mbus_app.o(.text) refers to crc.o(.text) for CRC16
    mbus_app.o(.text) refers to mbus_app.o(.constdata) for .constdata
    mbus_app.o(.text) refers to mbus_app.o(.bss) for .bss
    mbus_app.o(.text) refers to bootcfg.o(.bss) for sys_option
    mbus_app.o(.text) refers to mbus_app.o(.data) for .data
    mbus_app.o(.text) refers to clock.o(.text) for rt_tick_get
    mbus_app.o(.text) refers to thread.o(.text) for rt_thread_delay
    mbus_app.o(.text) refers to device.o(.text) for rt_device_find
    mbus_app.o(.text) refers to stm32f2xx_gpio.o(.text) for GPIO_SetBits
    mbus_app.o(.text) refers to scheduler.o(.text) for rt_enter_critical
    mbus_app.o(.text) refers to led_indicator.o(.text) for light_up_modbus_data_indicator
    mbus_app.o(.text) refers to h1_alloc.o(.text) for malloc
    mbus_app.o(.text) refers to h1_free.o(.text) for free
    msg_center.o(.text) refers to ipc.o(.text) for rt_mq_recv
    msg_center.o(.text) refers to thread.o(.text) for rt_thread_create
    msg_center.o(.text) refers to kservice.o(.text) for rt_kprintf
    msg_center.o(.text) refers to msg_center.o(.bss) for .bss
    msg_center.o(.text) refers to msg_center.o(.data) for .data
    msg_center.o(.text) refers to msg_center.o(.constdata) for .constdata
    net_app.o(.text) refers to _printf_percent.o(.ARM.Collect$$_printf_percent$$00000000) for _printf_percent
    net_app.o(.text) refers to _printf_s.o(.ARM.Collect$$_printf_percent$$00000014) for _printf_s
    net_app.o(.text) refers to _printf_str.o(.text) for _printf_str
    net_app.o(.text) refers to _printf_d.o(.ARM.Collect$$_printf_percent$$00000009) for _printf_d
    net_app.o(.text) refers to _printf_dec.o(.text) for _printf_int_dec
    net_app.o(.text) refers to _printf_pad.o(.text) for _printf_pre_padding
    net_app.o(.text) refers to _printf_x.o(.ARM.Collect$$_printf_percent$$0000000C) for _printf_x
    net_app.o(.text) refers to _printf_hex_int.o(.text) for _printf_longlong_hex
    net_app.o(.text) refers to ipc.o(.text) for rt_mutex_take
    net_app.o(.text) refers to kservice.o(.text) for rt_kprintf
    net_app.o(.text) refers to rt_memclr_w.o(.text) for __aeabi_memclr4
    net_app.o(.text) refers to noretval__2snprintf.o(.text) for __2snprintf
    net_app.o(.text) refers to 3g_watchdog.o(.text) for feed_watchdog
    net_app.o(.text) refers to thread.o(.text) for rt_thread_delay
    net_app.o(.text) refers to dhcp.o(.text) for dhcp_stop
    net_app.o(.text) refers to netif.o(.text) for netif_set_up
    net_app.o(.text) refers to netifapi.o(.text) for netifapi_netif_set_addr
    net_app.o(.text) refers to sockets.o(.text) for lwip_close
    net_app.o(.text) refers to rtc.o(.text) for time
    net_app.o(.text) refers to def.o(.text) for lwip_htons
    net_app.o(.text) refers to ip_addr.o(.text) for ipaddr_ntoa
    net_app.o(.text) refers to net_app.o(.data) for .data
    net_app.o(.text) refers to net_app.o(.constdata) for .constdata
    net_app.o(.text) refers to bootcfg.o(.bss) for sys_option
    net_app.o(.text) refers to net_app.o(.bss) for .bss
    net_app.o(.text) refers to netif.o(.data) for netif_default
    net_app.o(.text) refers to location_data.o(.text) for dump_location_data
    net_app.o(.text) refers to localtime_internal.o(.text) for localtime_r
    net_app.o(.text) refers to mbus_app.o(.bss) for mbus_reported_mq
    net_app.o(.text) refers to bootcfg.o(.text) for get_sys_cfg
    net_app.o(.text) refers to upgrade_flag.o(.text) for is_upgrade_complete
    net_app.o(.text) refers to bsmac_parser.o(.text) for bsmac_send_packet
    net_app.o(.text) refers to board.o(.text) for rt_hw_board_reboot
    net_app.o(.text) refers to msg_center.o(.text) for msg_analyser_register
    net_app.o(.text) refers to 3g_watchdog.o(.data) for iwdg_net_feed_flag
    net_app.o(.text) refers to msg_center.o(.bss) for msg_analyser_mq
    net_app.o(.text) refers to bsmac_parser.o(.bss) for bsmac_mq
    open_transmit.o(.text) refers to open_transmit.o(.bss) for .bss
    startup.o(.text) refers to kservice.o(.text) for rt_kprintf
    startup.o(.text) refers to stm32f2xx_flash.o(.text) for FLASH_Unlock
    startup.o(.text) refers to board.o(.text) for rt_hw_board_init
    startup.o(.text) refers to clock.o(.text) for rt_system_tick_init
    startup.o(.text) refers to object.o(.text) for rt_system_object_init
    startup.o(.text) refers to timer.o(.text) for rt_system_timer_init
    startup.o(.text) refers to mem.o(.text) for rt_system_heap_init
    startup.o(.text) refers to scheduler.o(.text) for rt_system_scheduler_init
    startup.o(.text) refers to device.o(.text) for rt_device_init_all
    startup.o(.text) refers to application.o(.text) for rt_application_init
    startup.o(.text) refers to idle.o(.text) for rt_thread_idle_init
    startup.o(.text) refers to context_rvds.o(.text) for rt_hw_interrupt_disable
    startup.o(.text) refers to 3g_watchdog.o(.text) for startup_watchdog
    system_stm32f2xx.o(.text) refers to system_stm32f2xx.o(.data) for .data
    upgrade_flag.o(.text) refers to dfs_posix.o(.text) for open
    upgrade_flag.o(.text) refers to kservice.o(.text) for rt_kprintf
    upgrade_flag.o(.text) refers to upgrade_flag.o(.constdata) for .constdata
    upgrade_flag.o(.text) refers to upgrade_flag.o(.data) for .data
    board.o(.text) refers to misc.o(.text) for NVIC_SetVectorTable
    board.o(.text) refers to irq.o(.text) for rt_interrupt_enter
    board.o(.text) refers to clock.o(.text) for rt_tick_increase
    board.o(.text) refers to stm32f2xx_rcc.o(.text) for RCC_AHB1PeriphClockCmd
    board.o(.text) refers to stm32f2xx_gpio.o(.text) for GPIO_PinAFConfig
    board.o(.text) refers to usart.o(.text) for rt_hw_usart_init
    board.o(.text) refers to kservice.o(.text) for rt_console_set_device
    board.o(.text) refers to context_rvds.o(.text) for rt_hw_interrupt_disable
    board.o(.text) refers to system_stm32f2xx.o(.data) for SystemCoreClock
    platform.o(.text) refers to stm32f2xx_rcc.o(.text) for RCC_AHB1PeriphClockCmd
    platform.o(.text) refers to stm32f2xx_gpio.o(.text) for GPIO_Init
    platform.o(.text) refers to stm32f20x_40x_spi.o(.text) for stm32_spi_register
    platform.o(.text) refers to spi_core.o(.text) for rt_spi_bus_attach_device
    platform.o(.text) refers to spi_flash_w25qxx.o(.text) for w25qxx_init
    platform.o(.text) refers to stm32f2_rtc.o(.text) for rt_hw_rtc_init
    platform.o(.text) refers to stm32f2xx_eth.o(.text) for rt_hw_stm32_eth_init
    platform.o(.text) refers to thread.o(.text) for rt_thread_delay
    platform.o(.text) refers to device.o(.text) for rt_device_init_all
    platform.o(.text) refers to platform.o(.bss) for .bss
    platform.o(.text) refers to platform.o(.data) for .data
    usart.o(.text) refers to kservice.o(.text) for rt_kprintf
    usart.o(.text) refers to stm32f2xx_usart.o(.text) for USART_Init
    usart.o(.text) refers to irq.o(.text) for rt_interrupt_enter
    usart.o(.text) refers to serial.o(.text) for rt_hw_serial_isr
    usart.o(.text) refers to stm32f2xx_gpio.o(.text) for GPIO_Init
    usart.o(.text) refers to usart.o(.constdata) for .constdata
    usart.o(.text) refers to usart.o(.data) for .data
    usart.o(.text) refers to usart.o(.bss) for .bss
    usart.o(.text) refers to stm32f2xx_rcc.o(.text) for RCC_AHB1PeriphClockCmd
    usart.o(.text) refers to misc.o(.text) for NVIC_Init
    usart.o(.constdata) refers to usart.o(.text) for stm32_configure
    ext_sram.o(.text) refers to stm32f2xx_fsmc.o(.text) for FSMC_NORSRAMStructInit
    stm32f2xx_it.o(.text) refers to stm32f2xx_exti.o(.text) for EXTI_GetITStatus
    stm32_flash.o(.text) refers to stm32f2xx_flash.o(.text) for FLASH_Unlock
    stm32f2xx_eth.o(.text) refers to stm32f2xx_rcc.o(.text) for RCC_AHB1PeriphResetCmd
    stm32f2xx_eth.o(.text) refers to startup.o(.text) for assert_failed
    stm32f2xx_eth.o(.text) refers to stm32f2xx_eth.o(.data) for .data
    stm32f2xx_eth.o(.text) refers to irq.o(.text) for rt_interrupt_enter
    stm32f2xx_eth.o(.text) refers to ipc.o(.text) for rt_sem_release
    stm32f2xx_eth.o(.text) refers to ethernetif.o(.text) for eth_device_ready
    stm32f2xx_eth.o(.text) refers to stm32f2xx_syscfg.o(.text) for SYSCFG_ETH_MediaInterfaceConfig
    stm32f2xx_eth.o(.text) refers to stm32f2xx_eth.o(.bss) for .bss
    stm32f2xx_eth.o(.text) refers to kservice.o(.text) for rt_set_errno
    stm32f2xx_eth.o(.text) refers to context_rvds.o(.text) for rt_hw_interrupt_disable
    stm32f2xx_eth.o(.text) refers to rt_memcpy_v6.o(.text) for __aeabi_memcpy
    stm32f2xx_eth.o(.text) refers to def.o(.text) for lwip_htons
    stm32f2xx_eth.o(.text) refers to pbuf.o(.text) for pbuf_alloc
    stm32f2xx_eth.o(.text) refers to stm32f2xx_gpio.o(.text) for GPIO_PinAFConfig
    stm32f2xx_eth.o(.text) refers to thread.o(.text) for rt_thread_delay
    stm32f2xx_eth.o(.text) refers to misc.o(.text) for NVIC_Init
    stm32f20x_40x_spi.o(.text) refers to stm32f2xx_spi.o(.text) for SPI_StructInit
    stm32f20x_40x_spi.o(.text) refers to stm32f2xx_gpio.o(.text) for GPIO_ResetBits
    stm32f20x_40x_spi.o(.text) refers to stm32f2xx_rcc.o(.text) for RCC_APB2PeriphClockCmd
    stm32f20x_40x_spi.o(.text) refers to spi_core.o(.text) for rt_spi_bus_register
    stm32f20x_40x_spi.o(.text) refers to system_stm32f2xx.o(.data) for SystemCoreClock
    stm32f20x_40x_spi.o(.text) refers to stm32f20x_40x_spi.o(.data) for .data
    stm32f20x_40x_spi.o(.data) refers to stm32f20x_40x_spi.o(.text) for configure
    spi_flash_w25qxx.o(.text) refers to ipc.o(.text) for rt_mutex_release
    spi_flash_w25qxx.o(.text) refers to kservice.o(.text) for rt_kprintf
    spi_flash_w25qxx.o(.text) refers to spi_core.o(.text) for rt_spi_send_then_recv
    spi_flash_w25qxx.o(.text) refers to device.o(.text) for rt_device_find
    spi_flash_w25qxx.o(.text) refers to spi_flash_w25qxx.o(.bss) for .bss
    spi_flash_w25qxx.o(.text) refers to spi_flash_w25qxx.o(.constdata) for .constdata
    stm32f2_rtc.o(.text) refers to kservice.o(.text) for rt_kprintf
    stm32f2_rtc.o(.text) refers to rt_memclr_w.o(.text) for __aeabi_memclr4
    stm32f2_rtc.o(.text) refers to stm32f2xx_rtc.o(.text) for RTC_GetTime
    stm32f2_rtc.o(.text) refers to mktime.o(.text) for mktime
    stm32f2_rtc.o(.text) refers to localtime.o(.text) for localtime
    stm32f2_rtc.o(.text) refers to stm32f2xx_pwr.o(.text) for PWR_BackupAccessCmd
    stm32f2_rtc.o(.text) refers to stm32f2xx_rcc.o(.text) for RCC_APB1PeriphClockCmd
    stm32f2_rtc.o(.text) refers to device.o(.text) for rt_device_register
    stm32f2_rtc.o(.text) refers to stm32f2_rtc.o(.constdata) for .constdata
    stm32f2_rtc.o(.text) refers to stm32f2_rtc.o(.data) for .data
    stm32f2_rtc.o(.text) refers to stm32f2_rtc.o(.bss) for .bss
    misc.o(.text) refers to startup.o(.text) for assert_failed
    stm32f2xx_adc.o(.text) refers to stm32f2xx_rcc.o(.text) for RCC_APB2PeriphResetCmd
    stm32f2xx_adc.o(.text) refers to startup.o(.text) for assert_failed
    stm32f2xx_adc.o(.text) refers to stm32f2xx_adc.o(.constdata) for .constdata
    stm32f2xx_can.o(.text) refers to startup.o(.text) for assert_failed
    stm32f2xx_can.o(.text) refers to stm32f2xx_rcc.o(.text) for RCC_APB1PeriphResetCmd
    stm32f2xx_can.o(.text) refers to stm32f2xx_can.o(.constdata) for .constdata
    stm32f2xx_cryp.o(.text) refers to stm32f2xx_rcc.o(.text) for RCC_AHB2PeriphResetCmd
    stm32f2xx_cryp.o(.text) refers to startup.o(.text) for assert_failed
    stm32f2xx_cryp.o(.text) refers to stm32f2xx_cryp.o(.constdata) for .constdata
    stm32f2xx_cryp_aes.o(.text) refers to stm32f2xx_cryp.o(.text) for CRYP_KeyStructInit
    stm32f2xx_cryp_des.o(.text) refers to stm32f2xx_cryp.o(.text) for CRYP_KeyStructInit
    stm32f2xx_cryp_tdes.o(.text) refers to stm32f2xx_cryp.o(.text) for CRYP_KeyStructInit
    stm32f2xx_dac.o(.text) refers to stm32f2xx_rcc.o(.text) for RCC_APB1PeriphResetCmd
    stm32f2xx_dac.o(.text) refers to startup.o(.text) for assert_failed
    stm32f2xx_dac.o(.text) refers to stm32f2xx_dac.o(.constdata) for .constdata
    stm32f2xx_dbgmcu.o(.text) refers to startup.o(.text) for assert_failed
    stm32f2xx_dbgmcu.o(.text) refers to stm32f2xx_dbgmcu.o(.constdata) for .constdata
    stm32f2xx_dcmi.o(.text) refers to startup.o(.text) for assert_failed
    stm32f2xx_dcmi.o(.text) refers to stm32f2xx_dcmi.o(.constdata) for .constdata
    stm32f2xx_dma.o(.text) refers to startup.o(.text) for assert_failed
    stm32f2xx_dma.o(.text) refers to stm32f2xx_dma.o(.constdata) for .constdata
    stm32f2xx_exti.o(.text) refers to startup.o(.text) for assert_failed
    stm32f2xx_exti.o(.text) refers to stm32f2xx_exti.o(.constdata) for .constdata
    stm32f2xx_flash.o(.text) refers to startup.o(.text) for assert_failed
    stm32f2xx_flash.o(.text) refers to stm32f2xx_flash.o(.constdata) for .constdata
    stm32f2xx_fsmc.o(.text) refers to startup.o(.text) for assert_failed
    stm32f2xx_fsmc.o(.text) refers to stm32f2xx_fsmc.o(.constdata) for .constdata
    stm32f2xx_gpio.o(.text) refers to startup.o(.text) for assert_failed
    stm32f2xx_gpio.o(.text) refers to stm32f2xx_rcc.o(.text) for RCC_AHB1PeriphResetCmd
    stm32f2xx_gpio.o(.text) refers to stm32f2xx_gpio.o(.constdata) for .constdata
    stm32f2xx_hash.o(.text) refers to stm32f2xx_rcc.o(.text) for RCC_AHB2PeriphResetCmd
    stm32f2xx_hash.o(.text) refers to startup.o(.text) for assert_failed
    stm32f2xx_hash.o(.text) refers to stm32f2xx_hash.o(.constdata) for .constdata
    stm32f2xx_hash_md5.o(.text) refers to stm32f2xx_hash.o(.text) for HASH_DeInit
    stm32f2xx_hash_sha1.o(.text) refers to stm32f2xx_hash.o(.text) for HASH_DeInit
    stm32f2xx_i2c.o(.text) refers to startup.o(.text) for assert_failed
    stm32f2xx_i2c.o(.text) refers to stm32f2xx_rcc.o(.text) for RCC_APB1PeriphResetCmd
    stm32f2xx_i2c.o(.text) refers to stm32f2xx_i2c.o(.constdata) for .constdata
    stm32f2xx_iwdg.o(.text) refers to startup.o(.text) for assert_failed
    stm32f2xx_iwdg.o(.text) refers to stm32f2xx_iwdg.o(.constdata) for .constdata
    stm32f2xx_pwr.o(.text) refers to stm32f2xx_rcc.o(.text) for RCC_APB1PeriphResetCmd
    stm32f2xx_pwr.o(.text) refers to startup.o(.text) for assert_failed
    stm32f2xx_pwr.o(.text) refers to stm32f2xx_pwr.o(.constdata) for .constdata
    stm32f2xx_rcc.o(.text) refers to startup.o(.text) for assert_failed
    stm32f2xx_rcc.o(.text) refers to stm32f2xx_rcc.o(.constdata) for .constdata
    stm32f2xx_rcc.o(.text) refers to stm32f2xx_rcc.o(.data) for .data
    stm32f2xx_rng.o(.text) refers to stm32f2xx_rcc.o(.text) for RCC_AHB2PeriphResetCmd
    stm32f2xx_rng.o(.text) refers to startup.o(.text) for assert_failed
    stm32f2xx_rng.o(.text) refers to stm32f2xx_rng.o(.constdata) for .constdata
    stm32f2xx_rtc.o(.text) refers to startup.o(.text) for assert_failed
    stm32f2xx_rtc.o(.text) refers to stm32f2xx_rtc.o(.constdata) for .constdata
    stm32f2xx_sdio.o(.text) refers to stm32f2xx_rcc.o(.text) for RCC_APB2PeriphResetCmd
    stm32f2xx_sdio.o(.text) refers to startup.o(.text) for assert_failed
    stm32f2xx_sdio.o(.text) refers to stm32f2xx_sdio.o(.constdata) for .constdata
    stm32f2xx_spi.o(.text) refers to startup.o(.text) for assert_failed
    stm32f2xx_spi.o(.text) refers to stm32f2xx_rcc.o(.text) for RCC_APB2PeriphResetCmd
    stm32f2xx_spi.o(.text) refers to stm32f2xx_spi.o(.constdata) for .constdata
    stm32f2xx_syscfg.o(.text) refers to stm32f2xx_rcc.o(.text) for RCC_APB2PeriphResetCmd
    stm32f2xx_syscfg.o(.text) refers to startup.o(.text) for assert_failed
    stm32f2xx_syscfg.o(.text) refers to stm32f2xx_syscfg.o(.constdata) for .constdata
    stm32f2xx_tim.o(.text) refers to startup.o(.text) for assert_failed
    stm32f2xx_tim.o(.text) refers to stm32f2xx_rcc.o(.text) for RCC_APB2PeriphResetCmd
    stm32f2xx_tim.o(.text) refers to stm32f2xx_tim.o(.constdata) for .constdata
    stm32f2xx_usart.o(.text) refers to startup.o(.text) for assert_failed
    stm32f2xx_usart.o(.text) refers to stm32f2xx_rcc.o(.text) for RCC_APB2PeriphResetCmd
    stm32f2xx_usart.o(.text) refers to stm32f2xx_usart.o(.constdata) for .constdata
    stm32f2xx_wwdg.o(.text) refers to stm32f2xx_rcc.o(.text) for RCC_APB1PeriphResetCmd
    stm32f2xx_wwdg.o(.text) refers to startup.o(.text) for assert_failed
    stm32f2xx_wwdg.o(.text) refers to stm32f2xx_wwdg.o(.constdata) for .constdata
    startup_stm32f2xx.o(STACK) refers (Special) to heapauxi.o(.text) for __use_two_region_memory
    startup_stm32f2xx.o(HEAP) refers (Special) to heapauxi.o(.text) for __use_two_region_memory
    startup_stm32f2xx.o(RESET) refers (Special) to heapauxi.o(.text) for __use_two_region_memory
    startup_stm32f2xx.o(RESET) refers to startup_stm32f2xx.o(STACK) for __initial_sp
    startup_stm32f2xx.o(RESET) refers to startup_stm32f2xx.o(.text) for Reset_Handler
    startup_stm32f2xx.o(RESET) refers to stm32f2xx_it.o(.text) for NMI_Handler
    startup_stm32f2xx.o(RESET) refers to context_rvds.o(.text) for HardFault_Handler
    startup_stm32f2xx.o(RESET) refers to board.o(.text) for SysTick_Handler
    startup_stm32f2xx.o(RESET) refers to usart.o(.text) for USART1_IRQHandler
    startup_stm32f2xx.o(RESET) refers to stm32f2xx_eth.o(.text) for ETH_IRQHandler
    startup_stm32f2xx.o(.text) refers (Special) to heapauxi.o(.text) for __use_two_region_memory
    startup_stm32f2xx.o(.text) refers to system_stm32f2xx.o(.text) for SystemInit
    startup_stm32f2xx.o(.text) refers to __main.o(!!!main) for __main
    startup_stm32f2xx.o(.text) refers to startup_stm32f2xx.o(HEAP) for Heap_Mem
    startup_stm32f2xx.o(.text) refers to startup_stm32f2xx.o(STACK) for Stack_Mem
    crc.o(.text) refers to crc.o(.constdata) for .constdata
    clock.o(.text) refers to context_rvds.o(.text) for rt_hw_interrupt_disable
    clock.o(.text) refers to thread.o(.text) for rt_thread_self
    clock.o(.text) refers to timer.o(.text) for rt_timer_check
    clock.o(.text) refers to clock.o(.data) for .data
    device.o(.text) refers to thread.o(.text) for rt_thread_self
    device.o(.text) refers to scheduler.o(.text) for rt_enter_critical
    device.o(.text) refers to kservice.o(.text) for rt_strncmp
    device.o(.text) refers to object.o(.text) for rt_object_init
    device.o(.text) refers to object.o(.data) for rt_object_container
    device.o(.text) refers to device.o(.constdata) for .constdata
    idle.o(.text) refers to context_rvds.o(.text) for rt_hw_interrupt_disable
    idle.o(.text) refers to irq.o(.text) for rt_interrupt_get_nest
    idle.o(.text) refers to kservice.o(.text) for rt_kprintf
    idle.o(.text) refers to object.o(.text) for rt_object_is_systemobject
    idle.o(.text) refers to mem.o(.text) for rt_free
    idle.o(.text) refers to thread.o(.text) for rt_thread_init
    idle.o(.text) refers to idle.o(.data) for .data
    idle.o(.text) refers to scheduler.o(.data) for rt_thread_defunct
    idle.o(.text) refers to idle.o(.constdata) for .constdata
    idle.o(.text) refers to idle.o(.bss) for .bss
    ipc.o(.text) refers to thread.o(.text) for rt_thread_suspend
    ipc.o(.text) refers to context_rvds.o(.text) for rt_hw_interrupt_disable
    ipc.o(.text) refers to kservice.o(.text) for rt_kprintf
    ipc.o(.text) refers to object.o(.text) for rt_object_init
    ipc.o(.text) refers to irq.o(.text) for rt_interrupt_get_nest
    ipc.o(.text) refers to timer.o(.text) for rt_timer_control
    ipc.o(.text) refers to scheduler.o(.text) for rt_schedule
    ipc.o(.text) refers to ipc.o(.constdata) for .constdata
    ipc.o(.text) refers to object.o(.data) for rt_object_trytake_hook
    ipc.o(.text) refers to mem.o(.text) for rt_malloc
    ipc.o(.text) refers to clock.o(.text) for rt_tick_get
    irq.o(.text) refers to context_rvds.o(.text) for rt_hw_interrupt_disable
    irq.o(.text) refers to irq.o(.data) for .data
    kservice.o(.text) refers to irq.o(.text) for rt_interrupt_get_nest
    kservice.o(.text) refers to thread.o(.text) for rt_thread_self
    kservice.o(.text) refers to mem.o(.text) for rt_malloc
    kservice.o(.text) refers to kservice.o(.data) for .data
    kservice.o(.text) refers to kservice.o(.constdata) for .constdata
    kservice.o(.text) refers to device.o(.text) for rt_device_write
    kservice.o(.text) refers to kservice.o(.bss) for .bss
    mem.o(.text) refers to kservice.o(.text) for rt_kprintf
    mem.o(.text) refers to context_rvds.o(.text) for rt_hw_interrupt_disable
    mem.o(.text) refers to irq.o(.text) for rt_interrupt_get_nest
    mem.o(.text) refers to ipc.o(.text) for rt_sem_init
    mem.o(.text) refers to mem.o(.data) for .data
    mem.o(.text) refers to mem.o(.constdata) for .constdata
    mem.o(.text) refers to mem.o(.bss) for .bss
    mempool.o(.text) refers to kservice.o(.text) for rt_kprintf
    mempool.o(.text) refers to object.o(.text) for rt_object_init
    mempool.o(.text) refers to context_rvds.o(.text) for rt_hw_interrupt_disable
    mempool.o(.text) refers to thread.o(.text) for rt_thread_resume
    mempool.o(.text) refers to irq.o(.text) for rt_interrupt_get_nest
    mempool.o(.text) refers to mem.o(.text) for rt_malloc
    mempool.o(.text) refers to timer.o(.text) for rt_timer_control
    mempool.o(.text) refers to scheduler.o(.text) for rt_schedule
    mempool.o(.text) refers to mempool.o(.data) for .data
    mempool.o(.text) refers to mempool.o(.constdata) for .constdata
    object.o(.text) refers to kservice.o(.text) for rt_strncpy
    object.o(.text) refers to context_rvds.o(.text) for rt_hw_interrupt_disable
    object.o(.text) refers to irq.o(.text) for rt_interrupt_get_nest
    object.o(.text) refers to mem.o(.text) for rt_malloc
    object.o(.text) refers to scheduler.o(.text) for rt_enter_critical
    object.o(.text) refers to object.o(.data) for .data
    object.o(.text) refers to object.o(.constdata) for .constdata
    object.o(.text) refers to irq.o(.data) for rt_interrupt_nest
    scheduler.o(.text) refers to context_rvds.o(.text) for rt_hw_context_switch_to
    scheduler.o(.text) refers to kservice.o(.text) for rt_kprintf
    scheduler.o(.text) refers to scheduler.o(.data) for .data
    scheduler.o(.text) refers to scheduler.o(.bss) for .bss
    scheduler.o(.text) refers to scheduler.o(.constdata) for .constdata
    scheduler.o(.text) refers to irq.o(.data) for rt_interrupt_nest
    thread.o(.text) refers to context_rvds.o(.text) for rt_hw_interrupt_disable
    thread.o(.text) refers to scheduler.o(.text) for rt_schedule_remove_thread
    thread.o(.text) refers to object.o(.text) for rt_object_detach
    thread.o(.text) refers to kservice.o(.text) for rt_kprintf
    thread.o(.text) refers to cpuport.o(.text) for rt_hw_stack_init
    thread.o(.text) refers to timer.o(.text) for rt_timer_init
    thread.o(.text) refers to mem.o(.text) for rt_malloc
    thread.o(.text) refers to scheduler.o(.data) for rt_current_thread
    thread.o(.text) refers to thread.o(.constdata) for .constdata
    thread.o(.text) refers to scheduler.o(.bss) for rt_thread_priority_table
    thread.o(.text) refers to object.o(.data) for rt_object_container
    timer.o(.text) refers to kservice.o(.text) for rt_kprintf
    timer.o(.text) refers to object.o(.text) for rt_object_init
    timer.o(.text) refers to context_rvds.o(.text) for rt_hw_interrupt_disable
    timer.o(.text) refers to clock.o(.text) for rt_tick_get
    timer.o(.text) refers to timer.o(.data) for .data
    timer.o(.text) refers to timer.o(.constdata) for .constdata
    timer.o(.text) refers to object.o(.data) for rt_object_take_hook
    cpuport.o(.text) refers to kservice.o(.text) for rt_kprintf
    cpuport.o(.text) refers to thread.o(.text) for rt_thread_self
    cpuport.o(.text) refers to cpuport.o(.data) for .data
    cpuport.o(.text) refers to cpuport.o(.constdata) for .constdata
    context_rvds.o(.text) refers to cpuport.o(.text) for rt_hw_hard_fault_exception
    context_rvds.o(.text) refers to cpuport.o(.data) for rt_thread_switch_interrupt_flag
    context_rvds.o(.text) refers to cpuport.o(.data) for rt_interrupt_from_thread
    context_rvds.o(.text) refers to cpuport.o(.data) for rt_interrupt_to_thread
    showmem.o(.text) refers to kservice.o(.text) for rt_kprintf
    showmem.o(.text) refers to showmem.o(.constdata) for .constdata
    dfs.o(.text) refers to kservice.o(.text) for rt_memset
    dfs.o(.text) refers to ipc.o(.text) for rt_mutex_init
    dfs.o(.text) refers to strlen.o(.text) for strlen
    dfs.o(.text) refers to mem.o(.text) for rt_malloc
    dfs.o(.text) refers to dfs_fs.o(.text) for dfs_filesystem_lookup
    dfs.o(.text) refers to strcmpv7m.o(.text) for strcmp
    dfs.o(.text) refers to dfs.o(.bss) for .bss
    dfs.o(.text) refers to dfs.o(.data) for .data
    dfs.o(.text) refers to dfs.o(.constdata) for .constdata
    dfs_fs.o(.text) refers to dfs.o(.text) for dfs_lock
    dfs_fs.o(.text) refers to strcmpv7m.o(.text) for strcmp
    dfs_fs.o(.text) refers to strlen.o(.text) for strlen
    dfs_fs.o(.text) refers to strncmp.o(.text) for strncmp
    dfs_fs.o(.text) refers to kservice.o(.text) for rt_kprintf
    dfs_fs.o(.text) refers to device.o(.text) for rt_device_find
    dfs_fs.o(.text) refers to dfs_file.o(.text) for dfs_file_open
    dfs_fs.o(.text) refers to mem.o(.text) for rt_free
    dfs_fs.o(.text) refers to dfs.o(.bss) for filesystem_operation_table
    dfs_fs.o(.text) refers to dfs_fs.o(.constdata) for .constdata
    dfs_file.o(.text) refers to dfs.o(.text) for dfs_normalize_path
    dfs_file.o(.text) refers to dfs_fs.o(.text) for dfs_filesystem_lookup
    dfs_file.o(.text) refers to mem.o(.text) for rt_free
    dfs_file.o(.text) refers to kservice.o(.text) for rt_memset
    dfs_posix.o(.text) refers to dfs.o(.text) for fd_new
    dfs_posix.o(.text) refers to dfs_file.o(.text) for dfs_file_open
    dfs_posix.o(.text) refers to kservice.o(.text) for rt_set_errno
    dfs_posix.o(.text) refers to dfs_fs.o(.text) for dfs_statfs
    dfs_posix.o(.text) refers to mem.o(.text) for rt_malloc
    dfs_posix.o(.text) refers to strncpy.o(.text) for strncpy
    dfs_posix.o(.text) refers to scheduler.o(.text) for rt_enter_critical
    dfs_posix.o(.text) refers to dfs.o(.data) for working_directory
    dfs_elm.o(.text) refers to mem.o(.text) for rt_malloc
    dfs_elm.o(.text) refers to ff.o(.text) for f_mount
    dfs_elm.o(.text) refers to kservice.o(.text) for rt_snprintf
    dfs_elm.o(.text) refers to dfs_elm.o(.data) for .data
    dfs_elm.o(.text) refers to dfs_elm.o(.constdata) for .constdata
    dfs_elm.o(.text) refers to dfs_fs.o(.text) for dfs_register
    dfs_elm.o(.text) refers to device.o(.text) for rt_device_read
    dfs_elm.o(.text) refers to ipc.o(.text) for rt_mutex_create
    dfs_elm.o(.constdata) refers to dfs_elm.o(.conststring) for .conststring
    dfs_elm.o(.constdata) refers to dfs_elm.o(.text) for dfs_elm_mount
    ff.o(.text) refers to dfs_elm.o(.text) for disk_write
    ff.o(.text) refers to ff.o(.data) for .data
    ff.o(.text) refers to ff.o(.constdata) for .constdata
    rtc.o(.text) refers to device.o(.text) for rt_device_find
    rtc.o(.text) refers to scheduler.o(.text) for rt_enter_critical
    rtc.o(.text) refers to localtime.o(.text) for localtime
    rtc.o(.text) refers to rt_memcpy_w.o(.text) for __aeabi_memcpy4
    rtc.o(.text) refers to mktime.o(.text) for mktime
    rtc.o(.text) refers to rtc.o(.data) for .data
    serial.o(.text) refers to kservice.o(.text) for rt_kprintf
    serial.o(.text) refers to dataqueue.o(.text) for rt_data_queue_init
    serial.o(.text) refers to context_rvds.o(.text) for rt_hw_interrupt_disable
    serial.o(.text) refers to device.o(.text) for rt_device_register
    serial.o(.text) refers to serial.o(.constdata) for .constdata
    spi_core.o(.text) refers to spi_dev.o(.text) for rt_spi_bus_device_init
    spi_core.o(.text) refers to ipc.o(.text) for rt_mutex_init
    spi_core.o(.text) refers to device.o(.text) for rt_device_find
    spi_core.o(.text) refers to kservice.o(.text) for rt_memset
    spi_core.o(.text) refers to spi_core.o(.constdata) for .constdata
    spi_dev.o(.text) refers to kservice.o(.text) for rt_kprintf
    spi_dev.o(.text) refers to spi_core.o(.text) for rt_spi_transfer
    spi_dev.o(.text) refers to device.o(.text) for rt_device_register
    spi_dev.o(.text) refers to spi_dev.o(.constdata) for .constdata
    completion.o(.text) refers to kservice.o(.text) for rt_kprintf
    completion.o(.text) refers to context_rvds.o(.text) for rt_hw_interrupt_disable
    completion.o(.text) refers to thread.o(.text) for rt_thread_self
    completion.o(.text) refers to irq.o(.text) for rt_interrupt_get_nest
    completion.o(.text) refers to timer.o(.text) for rt_timer_control
    completion.o(.text) refers to scheduler.o(.text) for rt_schedule
    completion.o(.text) refers to completion.o(.constdata) for .constdata
    dataqueue.o(.text) refers to kservice.o(.text) for rt_kprintf
    dataqueue.o(.text) refers to mem.o(.text) for rt_malloc
    dataqueue.o(.text) refers to thread.o(.text) for rt_thread_self
    dataqueue.o(.text) refers to context_rvds.o(.text) for rt_hw_interrupt_disable
    dataqueue.o(.text) refers to irq.o(.text) for rt_interrupt_get_nest
    dataqueue.o(.text) refers to timer.o(.text) for rt_timer_control
    dataqueue.o(.text) refers to scheduler.o(.text) for rt_schedule
    dataqueue.o(.text) refers to dataqueue.o(.constdata) for .constdata
    pipe.o(.text) refers to kservice.o(.text) for rt_kprintf
    pipe.o(.text) refers to thread.o(.text) for rt_thread_self
    pipe.o(.text) refers to context_rvds.o(.text) for rt_hw_interrupt_disable
    pipe.o(.text) refers to irq.o(.text) for rt_interrupt_get_nest
    pipe.o(.text) refers to ringbuffer.o(.text) for rt_ringbuffer_get
    pipe.o(.text) refers to scheduler.o(.text) for rt_schedule
    pipe.o(.text) refers to mem.o(.text) for rt_calloc
    pipe.o(.text) refers to device.o(.text) for rt_device_register
    pipe.o(.text) refers to pipe.o(.constdata) for .constdata
    pipe.o(.text) refers to pipe.o(.data) for .data
    ringbuffer.o(.text) refers to kservice.o(.text) for rt_kprintf
    ringbuffer.o(.text) refers to rt_memcpy_v6.o(.text) for __aeabi_memcpy
    ringbuffer.o(.text) refers to ringbuffer.o(.constdata) for .constdata
    components.o(.text) refers to ethernetif.o(.text) for eth_system_device_init
    components.o(.text) refers to sys_arch.o(.text) for lwip_system_init
    components.o(.text) refers to kservice.o(.text) for rt_kprintf
    components.o(.text) refers to dfs.o(.text) for dfs_init
    components.o(.text) refers to dfs_elm.o(.text) for elm_init
    api_lib.o(.text) refers to api_msg.o(.text) for netconn_alloc
    api_lib.o(.text) refers to tcpip.o(.text) for tcpip_apimsg
    api_lib.o(.text) refers to kservice.o(.text) for rt_kprintf
    api_lib.o(.text) refers to sys_arch.o(.text) for sys_arch_assert
    api_lib.o(.text) refers to mem.o(.text) for rt_free
    api_lib.o(.text) refers to memp.o(.constdata) for memp_sizes
    api_msg.o(.text) refers to sys_arch.o(.text) for sys_mbox_valid
    api_msg.o(.text) refers to pbuf.o(.text) for pbuf_alloc
    api_msg.o(.text) refers to mem.o(.text) for rt_malloc
    api_msg.o(.text) refers to netbuf.o(.text) for netbuf_delete
    api_msg.o(.text) refers to kservice.o(.text) for rt_kprintf
    api_msg.o(.text) refers to tcp.o(.text) for tcp_recved
    api_msg.o(.text) refers to tcp_out.o(.text) for tcp_write
    api_msg.o(.text) refers to memp.o(.constdata) for memp_sizes
    api_msg.o(.text) refers to ip.o(.data) for current_iphdr_src
    api_msg.o(.text) refers to raw.o(.text) for raw_new
    api_msg.o(.text) refers to udp.o(.text) for udp_new
    api_msg.o(.text) refers to strcmpv7m.o(.text) for strcmp
    api_msg.o(.text) refers to dns.o(.text) for dns_gethostbyname
    netbuf.o(.text) refers to mem.o(.text) for rt_malloc
    netbuf.o(.text) refers to pbuf.o(.text) for pbuf_free
    netbuf.o(.text) refers to kservice.o(.text) for rt_kprintf
    netbuf.o(.text) refers to sys_arch.o(.text) for sys_arch_assert
    netbuf.o(.text) refers to memp.o(.constdata) for memp_sizes
    netdb.o(.text) refers to api_lib.o(.text) for netconn_gethostbyname
    netdb.o(.text) refers to strlen.o(.text) for strlen
    netdb.o(.text) refers to rt_memcpy_v6.o(.text) for __aeabi_memcpy
    netdb.o(.text) refers to mem.o(.text) for rt_free
    netdb.o(.text) refers to atoi.o(.text) for atoi
    netdb.o(.text) refers to kservice.o(.text) for rt_kprintf
    netdb.o(.text) refers to sys_arch.o(.text) for sys_arch_assert
    netdb.o(.text) refers to rt_memclr_w.o(.text) for __aeabi_memclr4
    netdb.o(.text) refers to def.o(.text) for lwip_htons
    netdb.o(.text) refers to netdb.o(.data) for .data
    netdb.o(.text) refers to netdb.o(.bss) for .bss
    netdb.o(.text) refers to memp.o(.constdata) for memp_sizes
    netifapi.o(.text) refers to netif.o(.text) for netif_add
    netifapi.o(.text) refers to sys_arch.o(.text) for sys_sem_signal
    netifapi.o(.text) refers to tcpip.o(.text) for tcpip_netifapi
    sockets.o(.text) refers to kservice.o(.text) for _rt_errno
    sockets.o(.text) refers to sys_arch.o(.text) for sys_arch_protect
    sockets.o(.text) refers to api_lib.o(.text) for netconn_accept
    sockets.o(.text) refers to def.o(.text) for lwip_htons
    sockets.o(.text) refers to rt_memcpy_v6.o(.text) for __aeabi_memcpy
    sockets.o(.text) refers to pbuf.o(.text) for pbuf_free
    sockets.o(.text) refers to sockets.o(.bss) for .bss
    sockets.o(.text) refers to sockets.o(.data) for .data
    sockets.o(.text) refers to sockets.o(.constdata) for .constdata
    sockets.o(.text) refers to netbuf.o(.text) for netbuf_delete
    sockets.o(.text) refers to tcpip.o(.text) for tcpip_callback_with_block
    tcpip.o(.text) refers to timers.o(.text) for sys_timeouts_mbox_fetch
    tcpip.o(.text) refers to etharp.o(.text) for ethernet_input
    tcpip.o(.text) refers to ip.o(.text) for ip_input
    tcpip.o(.text) refers to mem.o(.text) for rt_free
    tcpip.o(.text) refers to kservice.o(.text) for rt_kprintf
    tcpip.o(.text) refers to sys_arch.o(.text) for sys_arch_assert
    tcpip.o(.text) refers to init.o(.text) for lwip_init
    tcpip.o(.text) refers to pbuf.o(.text) for pbuf_free
    tcpip.o(.text) refers to tcpip.o(.data) for .data
    tcpip.o(.text) refers to memp.o(.constdata) for memp_sizes
    sys_arch.o(.text) refers to device.o(.text) for rt_device_init
    sys_arch.o(.text) refers to thread.o(.text) for rt_thread_self
    sys_arch.o(.text) refers to kservice.o(.text) for rt_kprintf
    sys_arch.o(.text) refers to scheduler.o(.text) for rt_enter_critical
    sys_arch.o(.text) refers to netif.o(.text) for netif_add
    sys_arch.o(.text) refers to dhcp.o(.text) for dhcp_start
    sys_arch.o(.text) refers to ipc.o(.text) for rt_sem_release
    sys_arch.o(.text) refers to tcpip.o(.text) for tcpip_init
    sys_arch.o(.text) refers to context_rvds.o(.text) for rt_hw_interrupt_disable
    sys_arch.o(.text) refers to irq.o(.text) for rt_interrupt_get_nest
    sys_arch.o(.text) refers to clock.o(.text) for rt_tick_get
    sys_arch.o(.text) refers to sys_arch.o(.constdata) for .constdata
    sys_arch.o(.text) refers to object.o(.data) for rt_object_container
    sys_arch.o(.text) refers to netif.o(.data) for netif_default
    sys_arch.o(.text) refers to sys_arch.o(.data) for .data
    dhcp.o(.text) refers to kservice.o(.text) for rt_kprintf
    dhcp.o(.text) refers to sys_arch.o(.text) for sys_arch_assert
    dhcp.o(.text) refers to pbuf.o(.text) for pbuf_free
    dhcp.o(.text) refers to def.o(.text) for lwip_htonl
    dhcp.o(.text) refers to udp.o(.text) for udp_sendto_if
    dhcp.o(.text) refers to dhcp.o(.constdata) for .constdata
    dhcp.o(.text) refers to dhcp.o(.data) for .data
    dhcp.o(.text) refers to ip_addr.o(.constdata) for ip_addr_broadcast
    dhcp.o(.text) refers to etharp.o(.text) for etharp_query
    dhcp.o(.text) refers to netif.o(.text) for netif_set_down
    dhcp.o(.text) refers to netif.o(.data) for netif_list
    dhcp.o(.text) refers to ip_addr.o(.constdata) for ip_addr_any
    dhcp.o(.text) refers to dns.o(.text) for dns_setserver
    dhcp.o(.text) refers to rt_memclr_w.o(.text) for __aeabi_memclr4
    dhcp.o(.text) refers to mem.o(.text) for rt_free
    dhcp.o(.text) refers to dhcp.o(.bss) for .bss
    dns.o(.text) refers to pbuf.o(.text) for pbuf_copy_partial
    dns.o(.text) refers to def.o(.text) for lwip_htons
    dns.o(.text) refers to ip_addr.o(.text) for ipaddr_addr
    dns.o(.text) refers to udp.o(.text) for udp_new
    dns.o(.text) refers to kservice.o(.text) for rt_kprintf
    dns.o(.text) refers to sys_arch.o(.text) for sys_arch_assert
    dns.o(.text) refers to strlen.o(.text) for strlen
    dns.o(.text) refers to dns.o(.data) for .data
    dns.o(.text) refers to dns.o(.bss) for .bss
    dns.o(.text) refers to ip_addr.o(.constdata) for ip_addr_any
    dns.o(.text) refers to strcmpv7m.o(.text) for strcmp
    dns.o(.text) refers to rt_memcpy_v6.o(.text) for __aeabi_memcpy
    init.o(.text) refers to sys_arch.o(.text) for sys_init
    init.o(.text) refers to netif.o(.text) for netif_init
    init.o(.text) refers to sockets.o(.text) for lwip_socket_init
    init.o(.text) refers to dns.o(.text) for dns_init
    init.o(.text) refers to timers.o(.text) for sys_timeouts_init
    netif.o(.text) refers to tcp.o(.text) for tcp_abort
    netif.o(.text) refers to kservice.o(.text) for rt_kprintf
    netif.o(.text) refers to sys_arch.o(.text) for sys_arch_assert
    netif.o(.text) refers to etharp.o(.text) for etharp_request
    netif.o(.text) refers to dhcp.o(.text) for dhcp_network_changed
    netif.o(.text) refers to tcp.o(.data) for tcp_active_pcbs
    netif.o(.text) refers to netif.o(.data) for .data
    pbuf.o(.text) refers to sys_arch.o(.text) for sys_arch_protect
    pbuf.o(.text) refers to tcp.o(.text) for tcp_segs_free
    pbuf.o(.text) refers to tcpip.o(.text) for tcpip_callback_with_block
    pbuf.o(.text) refers to kservice.o(.text) for rt_kprintf
    pbuf.o(.text) refers to mem.o(.text) for rt_free
    pbuf.o(.text) refers to pbuf.o(.data) for .data
    pbuf.o(.text) refers to tcp.o(.data) for tcp_active_pcbs
    pbuf.o(.text) refers to memp.o(.constdata) for memp_sizes
    pbuf.o(.text) refers to rt_memcpy_v6.o(.text) for __aeabi_memcpy
    pbuf.o(.text) refers to strlen.o(.text) for strlen
    raw.o(.text) refers to pbuf.o(.text) for pbuf_header
    raw.o(.text) refers to kservice.o(.text) for rt_kprintf
    raw.o(.text) refers to sys_arch.o(.text) for sys_arch_assert
    raw.o(.text) refers to ip.o(.text) for ip_route
    raw.o(.text) refers to mem.o(.text) for rt_free
    raw.o(.text) refers to rt_memclr_w.o(.text) for __aeabi_memclr4
    raw.o(.text) refers to raw.o(.data) for .data
    raw.o(.text) refers to ip.o(.data) for current_iphdr_dest
    raw.o(.text) refers to memp.o(.constdata) for memp_sizes
    sys.o(.text) refers to sys_arch.o(.text) for sys_sem_new
    tcp.o(.text) refers to pbuf.o(.text) for pbuf_free
    tcp.o(.text) refers to mem.o(.text) for rt_free
    tcp.o(.text) refers to kservice.o(.text) for rt_kprintf
    tcp.o(.text) refers to sys_arch.o(.text) for sys_arch_assert
    tcp.o(.text) refers to tcp_out.o(.text) for tcp_zero_window_probe
    tcp.o(.text) refers to tcp.o(.data) for .data
    tcp.o(.text) refers to tcp.o(.constdata) for .constdata
    tcp.o(.text) refers to timers.o(.text) for tcp_timer_needed
    tcp.o(.text) refers to ip.o(.text) for ip_route
    tcp.o(.text) refers to rt_memclr_w.o(.text) for __aeabi_memclr4
    tcp.o(.text) refers to memp.o(.constdata) for memp_sizes
    tcp.o(.constdata) refers to tcp.o(.conststring) for .conststring
    tcp.o(.constdata) refers to tcp.o(.data) for tcp_listen_pcbs
    tcp_in.o(.text) refers to def.o(.text) for lwip_ntohs
    tcp_in.o(.text) refers to tcp.o(.text) for tcp_segs_free
    tcp_in.o(.text) refers to pbuf.o(.text) for pbuf_realloc
    tcp_in.o(.text) refers to tcp_out.o(.text) for tcp_rexmit_fast
    tcp_in.o(.text) refers to kservice.o(.text) for rt_kprintf
    tcp_in.o(.text) refers to sys_arch.o(.text) for sys_arch_assert
    tcp_in.o(.text) refers to tcp_in.o(.data) for .data
    tcp_in.o(.text) refers to tcp.o(.data) for tcp_ticks
    tcp_in.o(.text) refers to tcp_in.o(.bss) for .bss
    tcp_in.o(.text) refers to timers.o(.text) for tcp_timer_needed
    tcp_in.o(.text) refers to ip.o(.data) for current_iphdr_src
    tcp_in.o(.text) refers to ip_addr.o(.text) for ip4_addr_isbroadcast
    tcp_in.o(.text) refers to mem.o(.text) for rt_free
    tcp_out.o(.text) refers to pbuf.o(.text) for pbuf_alloc
    tcp_out.o(.text) refers to kservice.o(.text) for rt_kprintf
    tcp_out.o(.text) refers to sys_arch.o(.text) for sys_arch_assert
    tcp_out.o(.text) refers to def.o(.text) for lwip_htons
    tcp_out.o(.text) refers to mem.o(.text) for rt_malloc
    tcp_out.o(.text) refers to tcp.o(.text) for tcp_seg_free
    tcp_out.o(.text) refers to memp.o(.constdata) for memp_sizes
    tcp_out.o(.text) refers to tcp_out.o(.constdata) for .constdata
    tcp_out.o(.text) refers to rt_memcpy_v6.o(.text) for __aeabi_memcpy
    tcp_out.o(.text) refers to ip.o(.text) for ip_output
    tcp_out.o(.text) refers to tcp.o(.data) for tcp_ticks
    tcp_out.o(.text) refers to tcp_in.o(.data) for tcp_input_pcb
    timers.o(.text) refers to mem.o(.text) for rt_malloc
    timers.o(.text) refers to kservice.o(.text) for rt_kprintf
    timers.o(.text) refers to sys_arch.o(.text) for sys_arch_assert
    timers.o(.text) refers to tcp.o(.text) for tcp_tmr
    timers.o(.text) refers to etharp.o(.text) for etharp_tmr
    timers.o(.text) refers to dhcp.o(.text) for dhcp_coarse_tmr
    timers.o(.text) refers to dns.o(.text) for dns_tmr
    timers.o(.text) refers to memp.o(.constdata) for memp_sizes
    timers.o(.text) refers to timers.o(.data) for .data
    timers.o(.text) refers to tcp.o(.data) for tcp_active_pcbs
    udp.o(.text) refers to def.o(.text) for lwip_ntohs
    udp.o(.text) refers to pbuf.o(.text) for pbuf_header
    udp.o(.text) refers to ip_addr.o(.text) for ip4_addr_isbroadcast
    udp.o(.text) refers to kservice.o(.text) for rt_kprintf
    udp.o(.text) refers to sys_arch.o(.text) for sys_arch_assert
    udp.o(.text) refers to icmp.o(.text) for icmp_dest_unreach
    udp.o(.text) refers to ip.o(.text) for ip_output_if
    udp.o(.text) refers to mem.o(.text) for rt_free
    udp.o(.text) refers to rt_memclr_w.o(.text) for __aeabi_memclr4
    udp.o(.text) refers to ip.o(.data) for current_iphdr_dest
    udp.o(.text) refers to udp.o(.data) for .data
    udp.o(.text) refers to memp.o(.constdata) for memp_sizes
    icmp.o(.text) refers to def.o(.text) for lwip_ntohs
    icmp.o(.text) refers to pbuf.o(.text) for pbuf_header
    icmp.o(.text) refers to ip_addr.o(.text) for ip4_addr_isbroadcast
    icmp.o(.text) refers to inet_chksum.o(.text) for inet_chksum_pbuf
    icmp.o(.text) refers to kservice.o(.text) for rt_kprintf
    icmp.o(.text) refers to sys_arch.o(.text) for sys_arch_assert
    icmp.o(.text) refers to ip.o(.text) for ip_output_if
    icmp.o(.text) refers to rt_memcpy_v6.o(.text) for __aeabi_memcpy
    icmp.o(.text) refers to ip.o(.data) for current_iphdr_dest
    inet_chksum.o(.text) refers to def.o(.text) for lwip_htons
    inet_chksum.o(.text) refers to kservice.o(.text) for rt_kprintf
    inet_chksum.o(.text) refers to sys_arch.o(.text) for sys_arch_assert
    ip.o(.text) refers to def.o(.text) for lwip_ntohs
    ip.o(.text) refers to pbuf.o(.text) for pbuf_free
    ip.o(.text) refers to ip_addr.o(.text) for ip4_addr_isbroadcast
    ip.o(.text) refers to raw.o(.text) for raw_input
    ip.o(.text) refers to udp.o(.text) for udp_input
    ip.o(.text) refers to tcp_in.o(.text) for tcp_input
    ip.o(.text) refers to icmp.o(.text) for icmp_input
    ip.o(.text) refers to kservice.o(.text) for rt_kprintf
    ip.o(.text) refers to sys_arch.o(.text) for sys_arch_assert
    ip.o(.text) refers to netif.o(.data) for netif_list
    ip.o(.text) refers to ip.o(.data) for .data
    ip_addr.o(.text) refers to def.o(.text) for lwip_htonl
    ip_addr.o(.text) refers to kservice.o(.text) for rt_kprintf
    ip_addr.o(.text) refers to sys_arch.o(.text) for sys_arch_assert
    ip_addr.o(.text) refers to ip_addr.o(.bss) for .bss
    etharp.o(.text) refers to kservice.o(.text) for rt_kprintf
    etharp.o(.text) refers to sys_arch.o(.text) for sys_arch_assert
    etharp.o(.text) refers to pbuf.o(.text) for pbuf_free
    etharp.o(.text) refers to mem.o(.text) for rt_free
    etharp.o(.text) refers to ip_addr.o(.text) for ip4_addr_isbroadcast
    etharp.o(.text) refers to def.o(.text) for lwip_htons
    etharp.o(.text) refers to etharp.o(.bss) for .bss
    etharp.o(.text) refers to etharp.o(.constdata) for .constdata
    etharp.o(.text) refers to dhcp.o(.text) for dhcp_arp_reply
    etharp.o(.text) refers to ip.o(.text) for ip_input
    etharp.o(.text) refers to etharp.o(.data) for .data
    etharp.o(.text) refers to memp.o(.constdata) for memp_sizes
    ethernetif.o(.text) refers to ipc.o(.text) for rt_mb_send
    ethernetif.o(.text) refers to device.o(.text) for rt_device_init
    ethernetif.o(.text) refers to netif.o(.text) for netif_set_default
    ethernetif.o(.text) refers to dhcp.o(.text) for dhcp_start
    ethernetif.o(.text) refers to mem.o(.text) for rt_malloc
    ethernetif.o(.text) refers to kservice.o(.text) for rt_memset
    ethernetif.o(.text) refers to thread.o(.text) for rt_thread_find
    ethernetif.o(.text) refers to netifapi.o(.text) for netifapi_netif_add
    ethernetif.o(.text) refers to context_rvds.o(.text) for rt_hw_interrupt_disable
    ethernetif.o(.text) refers to sys_arch.o(.text) for sys_arch_assert
    ethernetif.o(.text) refers to pbuf.o(.text) for pbuf_free
    ethernetif.o(.text) refers to ethernetif.o(.bss) for .bss
    ethernetif.o(.text) refers to netif.o(.data) for netif_default
    ethernetif.o(.text) refers to etharp.o(.text) for etharp_output
    ethernetif.o(.text) refers to tcpip.o(.text) for tcpip_input
    ethernetif.o(.text) refers to ethernetif.o(.constdata) for .constdata
    rt_ctype_table.o(.text) refers to rt_locale_intlibspace.o(.text) for __rt_locale
    rt_ctype_table.o(.text) refers to lc_ctype_c.o(locale$$code) for _get_lc_ctype
    malloc.o(.text) refers (Special) to hguard.o(.text) for __heap$guard
    malloc.o(.text) refers (Special) to init_alloc.o(.text) for _init_alloc
    malloc.o(.text) refers to rt_heap_descriptor_intlibspace.o(.text) for __rt_heap_descriptor
    malloc.o(.text) refers to heapstubs.o(.text) for __Heap_Alloc
    free.o(.text) refers (Special) to hguard.o(.text) for __heap$guard
    free.o(.text) refers to rt_heap_descriptor_intlibspace.o(.text) for __rt_heap_descriptor
    free.o(.text) refers to heapstubs.o(.text) for __Heap_Free
    h1_alloc.o(.text) refers (Special) to h1_init.o(.text) for __Heap_Initialize
    h1_alloc.o(.text) refers to rt_heap_descriptor_intlibspace.o(.text) for __rt_heap_descriptor
    h1_alloc.o(.text) refers to init_alloc.o(.text) for __Heap_Full
    h1_free.o(.text) refers to rt_heap_descriptor_intlibspace.o(.text) for __rt_heap_descriptor
    h1_alloc_mt.o(.text) refers (Special) to h1_init.o(.text) for __Heap_Initialize
    h1_alloc_mt.o(.text) refers to init_alloc.o(.text) for __Heap_Full
    h1_alloc_mt.o(.text) refers to rt_heap_descriptor_intlibspace.o(.text) for __rt_heap_descriptor
    h1_free_mt.o(.text) refers to rt_heap_descriptor_intlibspace.o(.text) for __rt_heap_descriptor
    heap2.o(i._FDIterate) refers to heap2.o(.constdata) for .constdata
    heap2.o(i.___Heap_ProvideMemory$realtime) refers to fdtree.o(i._FDTree_Delete) for _FDTree_Delete
    heap2.o(i.___Heap_ProvideMemory$realtime) refers to fdtree.o(i._FDTree_Insert) for _FDTree_Insert
    heap2.o(i.___Heap_Stats$realtime) refers to heap2.o(i._Heap2_StatsIterate) for _Heap2_StatsIterate
    heap2.o(i.___Heap_Valid$realtime) refers to heap2.o(i._FDIterate) for _FDIterate
    heap2.o(i.___Heap_Valid$realtime) refers to heap2.o(.constdata) for .constdata
    heap2.o(i._free$realtime) refers to rt_heap_descriptor_intlibspace.o(.text) for __rt_heap_descriptor
    heap2.o(i._free$realtime) refers to fdtree.o(i._FDTree_Delete) for _FDTree_Delete
    heap2.o(i._free$realtime) refers to fdtree.o(i._FDTree_Insert) for _FDTree_Insert
    heap2.o(i._malloc$realtime) refers to rt_heap_descriptor_intlibspace.o(.text) for __rt_heap_descriptor
    heap2.o(i._malloc$realtime) refers to fdtree.o(i._FDTree_FindFirst) for _FDTree_FindFirst
    heap2.o(i._malloc$realtime) refers to init_alloc.o(.text) for __Heap_Full
    heap2.o(i._malloc$realtime) refers to fdtree.o(i._FDTree_RemoveNode) for _FDTree_RemoveNode
    heap2.o(i._malloc$realtime) refers to fdtree.o(i._FDTree_Insert) for _FDTree_Insert
    heap2.o(i._posix_memalign$realtime) refers to rt_heap_descriptor_intlibspace.o(.text) for __rt_heap_descriptor
    heap2.o(i._posix_memalign$realtime) refers to fdtree.o(i._FDTree_FindFirst) for _FDTree_FindFirst
    heap2.o(i._posix_memalign$realtime) refers to init_alloc.o(.text) for __Heap_Full
    heap2.o(i._posix_memalign$realtime) refers to fdtree.o(i._FDTree_RemoveNode) for _FDTree_RemoveNode
    heap2.o(i._posix_memalign$realtime) refers to fdtree.o(i._FDTree_Insert) for _FDTree_Insert
    heap2.o(i._realloc$realtime) refers to rt_heap_descriptor_intlibspace.o(.text) for __rt_heap_descriptor
    heap2.o(i._realloc$realtime) refers to fdtree.o(i._FDTree_Insert) for _FDTree_Insert
    heap2.o(i._realloc$realtime) refers to h1_free.o(.text) for free
    heap2.o(i._realloc$realtime) refers to h1_alloc.o(.text) for malloc
    heap2.o(i._realloc$realtime) refers to fdtree.o(i._FDTree_Delete) for _FDTree_Delete
    heap2.o(i._realloc$realtime) refers to rt_memcpy_w.o(.text) for __aeabi_memcpy4
    heap2mt.o(i._FDIterate) refers to heap2mt.o(.constdata) for .constdata
    heap2mt.o(i.___Heap_Initialize$realtime$concurrent) refers to mutex_dummy.o(.text) for _mutex_initialize
    heap2mt.o(i.___Heap_ProvideMemory$realtime$concurrent) refers to fdtree.o(i._FDTree_Delete) for _FDTree_Delete
    heap2mt.o(i.___Heap_ProvideMemory$realtime$concurrent) refers to fdtree.o(i._FDTree_Insert) for _FDTree_Insert
    heap2mt.o(i.___Heap_Stats$realtime$concurrent) refers to heap2mt.o(i._Heap2_StatsIterate) for _Heap2_StatsIterate
    heap2mt.o(i.___Heap_Valid$realtime$concurrent) refers to heap2mt.o(i._FDIterate) for _FDIterate
    heap2mt.o(i.___Heap_Valid$realtime$concurrent) refers to heap2mt.o(.constdata) for .constdata
    heap2mt.o(i._free$realtime$concurrent) refers to rt_heap_descriptor_intlibspace.o(.text) for __rt_heap_descriptor
    heap2mt.o(i._free$realtime$concurrent) refers to fdtree.o(i._FDTree_Delete) for _FDTree_Delete
    heap2mt.o(i._free$realtime$concurrent) refers to fdtree.o(i._FDTree_Insert) for _FDTree_Insert
    heap2mt.o(i._malloc$realtime$concurrent) refers to rt_heap_descriptor_intlibspace.o(.text) for __rt_heap_descriptor
    heap2mt.o(i._malloc$realtime$concurrent) refers to fdtree.o(i._FDTree_FindFirst) for _FDTree_FindFirst
    heap2mt.o(i._malloc$realtime$concurrent) refers to init_alloc.o(.text) for __Heap_Full
    heap2mt.o(i._malloc$realtime$concurrent) refers to fdtree.o(i._FDTree_RemoveNode) for _FDTree_RemoveNode
    heap2mt.o(i._malloc$realtime$concurrent) refers to fdtree.o(i._FDTree_Insert) for _FDTree_Insert
    heap2mt.o(i._posix_memalign$realtime$concurrent) refers to rt_heap_descriptor_intlibspace.o(.text) for __rt_heap_descriptor
    heap2mt.o(i._posix_memalign$realtime$concurrent) refers to fdtree.o(i._FDTree_FindFirst) for _FDTree_FindFirst
    heap2mt.o(i._posix_memalign$realtime$concurrent) refers to init_alloc.o(.text) for __Heap_Full
    heap2mt.o(i._posix_memalign$realtime$concurrent) refers to fdtree.o(i._FDTree_RemoveNode) for _FDTree_RemoveNode
    heap2mt.o(i._posix_memalign$realtime$concurrent) refers to fdtree.o(i._FDTree_Insert) for _FDTree_Insert
    heap2mt.o(i._realloc$realtime$concurrent) refers to rt_heap_descriptor_intlibspace.o(.text) for __rt_heap_descriptor
    heap2mt.o(i._realloc$realtime$concurrent) refers to fdtree.o(i._FDTree_Insert) for _FDTree_Insert
    heap2mt.o(i._realloc$realtime$concurrent) refers to h1_free.o(.text) for free
    heap2mt.o(i._realloc$realtime$concurrent) refers to h1_alloc.o(.text) for malloc
    heap2mt.o(i._realloc$realtime$concurrent) refers to fdtree.o(i._FDTree_Delete) for _FDTree_Delete
    heap2mt.o(i._realloc$realtime$concurrent) refers to rt_memcpy_w.o(.text) for __aeabi_memcpy4
    __2snprintf.o(.text) refers to _printf_char_common.o(.text) for _printf_char_common
    __2snprintf.o(.text) refers to _sputc.o(.text) for _sputc
    __2snprintf.o(.text) refers to _snputc.o(.text) for _snputc
    noretval__2snprintf.o(.text) refers to _printf_char_common.o(.text) for _printf_char_common
    noretval__2snprintf.o(.text) refers to _sputc.o(.text) for _sputc
    noretval__2snprintf.o(.text) refers to _snputc.o(.text) for _snputc
    __printf.o(.text) refers to _printf_percent.o(.ARM.Collect$$_printf_percent$$00000000) for _printf_percent
    _printf_str.o(.text) refers (Special) to _printf_char.o(.text) for _printf_cs_common
    _printf_str.o(.text) refers (Weak) to _printf_pad.o(.text) for _printf_pre_padding
    _printf_str.o(.text) refers (Weak) to _printf_pad.o(.text) for _printf_post_padding
    _printf_dec.o(.text) refers to _printf_intcommon.o(.text) for _printf_int_common
    _printf_hex_ll.o(.text) refers to _printf_intcommon.o(.text) for _printf_int_common
    _printf_hex_ll.o(.text) refers to _printf_hex_ll.o(.constdata) for .constdata
    _printf_hex_int.o(.text) refers to _printf_intcommon.o(.text) for _printf_int_common
    _printf_hex_int.o(.text) refers to _printf_hex_int.o(.constdata) for .constdata
    _printf_hex_int_ll.o(.text) refers to _printf_intcommon.o(.text) for _printf_int_common
    _printf_hex_int_ll.o(.text) refers to _printf_hex_int_ll.o(.constdata) for .constdata
    _printf_hex_ptr.o(.text) refers to _printf_intcommon.o(.text) for _printf_int_common
    _printf_hex_ptr.o(.text) refers to _printf_hex_ptr.o(.constdata) for .constdata
    _printf_hex_int_ptr.o(.text) refers to _printf_intcommon.o(.text) for _printf_int_common
    _printf_hex_int_ptr.o(.text) refers to _printf_hex_int_ptr.o(.constdata) for .constdata
    _printf_hex_ll_ptr.o(.text) refers to _printf_intcommon.o(.text) for _printf_int_common
    _printf_hex_ll_ptr.o(.text) refers to _printf_hex_ll_ptr.o(.constdata) for .constdata
    _printf_hex_int_ll_ptr.o(.text) refers to _printf_intcommon.o(.text) for _printf_int_common
    _printf_hex_int_ll_ptr.o(.text) refers to _printf_hex_int_ll_ptr.o(.constdata) for .constdata
    __printf_flags.o(.text) refers to _printf_percent.o(.ARM.Collect$$_printf_percent$$00000000) for _printf_percent
    __printf_flags.o(.text) refers to __printf_flags.o(.constdata) for .constdata
    __printf_ss.o(.text) refers to _printf_percent.o(.ARM.Collect$$_printf_percent$$00000000) for _printf_percent
    __printf_flags_ss.o(.text) refers to _printf_percent.o(.ARM.Collect$$_printf_percent$$00000000) for _printf_percent
    __printf_flags_ss.o(.text) refers to __printf_flags_ss.o(.constdata) for .constdata
    __printf_wp.o(.text) refers to __printf_wp.o(i._is_digit) for _is_digit
    __printf_wp.o(.text) refers to _printf_percent.o(.ARM.Collect$$_printf_percent$$00000000) for _printf_percent
    __printf_flags_wp.o(.text) refers to __printf_wp.o(i._is_digit) for _is_digit
    __printf_flags_wp.o(.text) refers to _printf_percent.o(.ARM.Collect$$_printf_percent$$00000000) for _printf_percent
    __printf_flags_wp.o(.text) refers to __printf_flags_wp.o(.constdata) for .constdata
    __printf_ss_wp.o(.text) refers to __printf_wp.o(i._is_digit) for _is_digit
    __printf_ss_wp.o(.text) refers to _printf_percent.o(.ARM.Collect$$_printf_percent$$00000000) for _printf_percent
    __printf_flags_ss_wp.o(.text) refers to __printf_wp.o(i._is_digit) for _is_digit
    __printf_flags_ss_wp.o(.text) refers to _printf_percent.o(.ARM.Collect$$_printf_percent$$00000000) for _printf_percent
    __printf_flags_ss_wp.o(.text) refers to __printf_flags_ss_wp.o(.constdata) for .constdata
    _printf_s.o(.ARM.Collect$$_printf_percent$$00000014) refers (Weak) to _printf_char.o(.text) for _printf_string
    _printf_x.o(.ARM.Collect$$_printf_percent$$0000000C) refers (Weak) to _printf_hex_int.o(.text) for _printf_int_hex
    _printf_d.o(.ARM.Collect$$_printf_percent$$00000009) refers (Weak) to _printf_dec.o(.text) for _printf_int_dec
    _printf_percent.o(.ARM.Collect$$_printf_percent$$00000000) refers (Special) to _printf_percent_end.o(.ARM.Collect$$_printf_percent$$00000017) for _printf_percent_end
    atoi.o(.text) refers to rt_errno_addr_intlibspace.o(.text) for __aeabi_errno_addr
    atoi.o(.text) refers to strtol.o(.text) for strtol
    strncasecmp.o(.text) refers to tolower.o(.text) for tolower
    strcasecmp.o(.text) refers to tolower.o(.text) for tolower
    rt_memcpy_v6.o(.text) refers to rt_memcpy_w.o(.text) for __aeabi_memcpy4
    rt_memclr.o(.text) refers to rt_memclr_w.o(.text) for _memset_w
    strncpy.o(.text) refers to rt_memclr.o(.text) for __aeabi_memclr
    localtime.o(.text) refers to localtime_internal.o(.text) for _localtime_r
    localtime.o(.text) refers to localtime.o(.bss) for .bss
    mktime.o(.text) refers to _monlen.o(.constdata) for _monlen
    localtime_internal.o(.text) refers to rt_memclr_w.o(.text) for __aeabi_memclr4
    localtime_internal.o(.text) refers to _monlen.o(.constdata) for _monlen
    __main.o(!!!main) refers to rtentry.o(.ARM.Collect$$rtentry$$00000000) for __rt_entry
    rtentry.o(.ARM.Collect$$rtentry$$00000000) refers (Special) to rtentry2.o(.ARM.Collect$$rtentry$$0000000A) for __rt_entry_li
    rtentry.o(.ARM.Collect$$rtentry$$00000000) refers (Special) to rtentry2.o(.ARM.Collect$$rtentry$$0000000D) for __rt_entry_main
    rtentry.o(.ARM.Collect$$rtentry$$00000000) refers (Special) to rtentry2.o(.ARM.Collect$$rtentry$$0000000C) for __rt_entry_postli_1
    rtentry.o(.ARM.Collect$$rtentry$$00000000) refers (Special) to rtentry2.o(.ARM.Collect$$rtentry$$00000009) for __rt_entry_postsh_1
    rtentry.o(.ARM.Collect$$rtentry$$00000000) refers (Special) to rtentry2.o(.ARM.Collect$$rtentry$$00000002) for __rt_entry_presh_1
    rtentry.o(.ARM.Collect$$rtentry$$00000000) refers (Special) to rtentry4.o(.ARM.Collect$$rtentry$$00000004) for __rt_entry_sh
    rt_heap_descriptor.o(.text) refers to rt_heap_descriptor.o(.bss) for __rt_heap_descriptor_data
    rt_heap_descriptor_intlibspace.o(.text) refers to libspace.o(.bss) for __libspace_start
    rt_locale.o(.text) refers to rt_locale.o(.bss) for __rt_locale_data
    rt_locale_intlibspace.o(.text) refers to libspace.o(.bss) for __libspace_start
    rt_errno_addr.o(.text) refers to rt_errno_addr.o(.bss) for __aeabi_errno_addr_data
    rt_errno_addr_intlibspace.o(.text) refers to libspace.o(.bss) for __libspace_start
    init_alloc.o(.text) refers (Special) to hguard.o(.text) for __heap$guard
    init_alloc.o(.text) refers (Special) to libinit2.o(.ARM.Collect$$libinit$$00000003) for __rt_lib_init_heap_2
    init_alloc.o(.text) refers (Special) to maybetermalloc1.o(.emb_text) for _maybe_terminate_alloc
    init_alloc.o(.text) refers to h1_extend.o(.text) for __Heap_ProvideMemory
    init_alloc.o(.text) refers to defsig_rtmem_outer.o(.text) for __rt_SIGRTMEM
    init_alloc.o(.text) refers to rt_heap_descriptor_intlibspace.o(.text) for __rt_heap_descriptor
    init_alloc.o(.text) refers to h1_init.o(.text) for __Heap_Initialize
    h1_init_mt.o(.text) refers to mutex_dummy.o(.text) for _mutex_initialize
    tolower.o(.text) refers to rt_ctype_table.o(.text) for __rt_ctype_table
    _printf_intcommon.o(.text) refers (Weak) to _printf_pad.o(.text) for _printf_pre_padding
    _printf_intcommon.o(.text) refers (Weak) to _printf_pad.o(.text) for _printf_pre_padding
    _printf_intcommon.o(.text) refers (Weak) to _printf_pad.o(.text) for _printf_post_padding
    _printf_char_common.o(.text) refers to __printf_flags_wp.o(.text) for __printf
    _printf_char.o(.text) refers (Weak) to _printf_str.o(.text) for _printf_str
    strtol.o(.text) refers to rt_ctype_table.o(.text) for __rt_ctype_table
    strtol.o(.text) refers to _strtoul.o(.text) for _strtoul
    strtol.o(.text) refers to rt_errno_addr_intlibspace.o(.text) for __aeabi_errno_addr
    lc_ctype_c.o(locale$$data) refers (Special) to libinit2.o(.ARM.Collect$$libinit$$00000010) for __rt_lib_init_lc_ctype_2
    lc_ctype_c.o(locale$$code) refers (Special) to libinit2.o(.ARM.Collect$$libinit$$00000010) for __rt_lib_init_lc_ctype_2
    lc_ctype_c.o(locale$$code) refers to strcmpv7m.o(.text) for strcmp
    lc_ctype_c.o(locale$$code) refers to lc_ctype_c.o(locale$$data) for __lcctype_c_name
    _get_argv.o(.text) refers (Special) to hrguard.o(.text) for __heap_region$guard
    _get_argv.o(.text) refers to h1_alloc.o(.text) for malloc
    _get_argv.o(.text) refers to defsig_rtmem_outer.o(.text) for __rt_SIGRTMEM
    _get_argv.o(.text) refers to sys_command.o(.text) for _sys_command_string
    libinit2.o(.ARM.Collect$$libinit$$00000003) refers (Weak) to init_alloc.o(.text) for _init_alloc
    libinit2.o(.ARM.Collect$$libinit$$0000000D) refers (Weak) to rt_locale_intlibspace.o(.text) for __rt_locale
    libinit2.o(.ARM.Collect$$libinit$$0000000E) refers to libinit2.o(.ARM.Collect$$libinit$$0000000D) for .ARM.Collect$$libinit$$0000000D
    libinit2.o(.ARM.Collect$$libinit$$00000010) refers to libinit2.o(.ARM.Collect$$libinit$$0000000D) for .ARM.Collect$$libinit$$0000000D
    libinit2.o(.ARM.Collect$$libinit$$00000010) refers (Weak) to lc_ctype_c.o(locale$$code) for _get_lc_ctype
    libinit2.o(.ARM.Collect$$libinit$$00000012) refers to libinit2.o(.ARM.Collect$$libinit$$0000000D) for .ARM.Collect$$libinit$$0000000D
    libinit2.o(.ARM.Collect$$libinit$$00000014) refers to libinit2.o(.ARM.Collect$$libinit$$0000000D) for .ARM.Collect$$libinit$$0000000D
    libinit2.o(.ARM.Collect$$libinit$$00000016) refers to libinit2.o(.ARM.Collect$$libinit$$0000000D) for .ARM.Collect$$libinit$$0000000D
    libinit2.o(.ARM.Collect$$libinit$$00000024) refers to argv_veneer.o(.emb_text) for __ARM_argv_veneer
    libinit2.o(.ARM.Collect$$libinit$$00000025) refers to argv_veneer.o(.emb_text) for __ARM_argv_veneer
    sys_command.o(.text) refers (Special) to use_no_semi.o(.text) for __I$use$semihosting
    sys_command.o(.text) refers (Special) to indicate_semi.o(.text) for __semihosting_library_function
    libspace.o(.text) refers to libspace.o(.bss) for __libspace_start
    rtentry2.o(.ARM.Collect$$rtentry$$00000008) refers to boardinit2.o(.text) for _platform_post_stackheap_init
    rtentry2.o(.ARM.Collect$$rtentry$$0000000A) refers to libinit.o(.ARM.Collect$$libinit$$00000000) for __rt_lib_init
    rtentry2.o(.ARM.Collect$$rtentry$$0000000B) refers to boardinit3.o(.text) for _platform_post_lib_init
    rtentry2.o(.ARM.Collect$$rtentry$$0000000D) refers to startup.o(.text) for main
    rtentry2.o(.ARM.Collect$$rtentry$$0000000D) refers to exit.o(.text) for exit
    rtentry2.o(.ARM.exidx) refers to rtentry2.o(.ARM.Collect$$rtentry$$00000001) for .ARM.Collect$$rtentry$$00000001
    rtentry2.o(.ARM.exidx) refers to rtentry2.o(.ARM.Collect$$rtentry$$00000008) for .ARM.Collect$$rtentry$$00000008
    rtentry2.o(.ARM.exidx) refers to rtentry2.o(.ARM.Collect$$rtentry$$0000000A) for .ARM.Collect$$rtentry$$0000000A
    rtentry2.o(.ARM.exidx) refers to rtentry2.o(.ARM.Collect$$rtentry$$0000000B) for .ARM.Collect$$rtentry$$0000000B
    rtentry2.o(.ARM.exidx) refers to rtentry2.o(.ARM.Collect$$rtentry$$0000000D) for .ARM.Collect$$rtentry$$0000000D
    rtentry4.o(.ARM.Collect$$rtentry$$00000004) refers to sys_stackheap_outer.o(.text) for __user_setup_stackheap
    rtentry4.o(.ARM.exidx) refers to rtentry4.o(.ARM.Collect$$rtentry$$00000004) for .ARM.Collect$$rtentry$$00000004
    maybetermalloc2.o(.emb_text) refers (Special) to term_alloc.o(.text) for _terminate_alloc
    h1_extend.o(.text) refers to h1_free.o(.text) for free
    h1_extend_mt.o(.text) refers to h1_free_mt.o(.text) for _free_internal
    _strtoul.o(.text) refers to _chval.o(.text) for _chval
    _strtoul.o(.text) refers to rt_errno_addr_intlibspace.o(.text) for __aeabi_errno_addr
    defsig_rtmem_outer.o(.text) refers to defsig_rtmem_inner.o(.text) for __rt_SIGRTMEM_inner
    defsig_rtmem_outer.o(.text) refers to defsig_exit.o(.text) for __sig_exit
    defsig_rtmem_formal.o(.text) refers to rt_raise.o(.text) for __rt_raise
    heapauxa.o(.text) refers to heapauxa.o(.data) for .data
    argv_veneer.o(.emb_text) refers to no_argv.o(.text) for __ARM_get_argv
    sys_stackheap_outer.o(.text) refers to libspace.o(.text) for __user_perproc_libspace
    sys_stackheap_outer.o(.text) refers to startup_stm32f2xx.o(.text) for __user_initial_stackheap
    rt_raise.o(.text) refers to __raise.o(.text) for __raise
    rt_raise.o(.text) refers to sys_exit.o(.text) for _sys_exit
    term_alloc.o(.text) refers (Special) to libshutdown2.o(.ARM.Collect$$libshutdown$$0000000D) for __rt_lib_shutdown_heap_2
    term_alloc.o(.text) refers to rt_heap_descriptor_intlibspace.o(.text) for __rt_heap_descriptor
    term_alloc.o(.text) refers to h1_final.o(.text) for __Heap_Finalize
    exit.o(.text) refers to rtexit.o(.ARM.Collect$$rtexit$$00000000) for __rt_exit
    defsig_exit.o(.text) refers to sys_exit.o(.text) for _sys_exit
    defsig_rtmem_inner.o(.text) refers to defsig_general.o(.text) for __default_signal_display
    _get_argv_nomalloc.o(.text) refers (Special) to hrguard.o(.text) for __heap_region$guard
    _get_argv_nomalloc.o(.text) refers to defsig_rtmem_outer.o(.text) for __rt_SIGRTMEM
    _get_argv_nomalloc.o(.text) refers to sys_command.o(.text) for _sys_command_string
    libinit.o(.ARM.Collect$$libinit$$00000000) refers (Special) to libinit2.o(.ARM.Collect$$libinit$$0000002C) for __rt_lib_init_alloca_1
    libinit.o(.ARM.Collect$$libinit$$00000000) refers (Special) to libinit2.o(.ARM.Collect$$libinit$$0000002A) for __rt_lib_init_argv_1
    libinit.o(.ARM.Collect$$libinit$$00000000) refers (Special) to libinit2.o(.ARM.Collect$$libinit$$00000019) for __rt_lib_init_atexit_1
    libinit.o(.ARM.Collect$$libinit$$00000000) refers (Special) to libinit2.o(.ARM.Collect$$libinit$$0000001F) for __rt_lib_init_clock_1
    libinit.o(.ARM.Collect$$libinit$$00000000) refers (Special) to libinit2.o(.ARM.Collect$$libinit$$00000030) for __rt_lib_init_cpp_1
    libinit.o(.ARM.Collect$$libinit$$00000000) refers (Special) to libinit2.o(.ARM.Collect$$libinit$$0000002E) for __rt_lib_init_exceptions_1
    libinit.o(.ARM.Collect$$libinit$$00000000) refers (Special) to libinit2.o(.ARM.Collect$$libinit$$00000002) for __rt_lib_init_fp_1
    libinit.o(.ARM.Collect$$libinit$$00000000) refers (Special) to libinit2.o(.ARM.Collect$$libinit$$0000001D) for __rt_lib_init_fp_trap_1
    libinit.o(.ARM.Collect$$libinit$$00000000) refers (Special) to libinit2.o(.ARM.Collect$$libinit$$00000021) for __rt_lib_init_getenv_1
    libinit.o(.ARM.Collect$$libinit$$00000000) refers (Special) to libinit2.o(.ARM.Collect$$libinit$$00000008) for __rt_lib_init_heap_1
    libinit.o(.ARM.Collect$$libinit$$00000000) refers (Special) to libinit2.o(.ARM.Collect$$libinit$$0000000F) for __rt_lib_init_lc_collate_1
    libinit.o(.ARM.Collect$$libinit$$00000000) refers (Special) to libinit2.o(.ARM.Collect$$libinit$$00000011) for __rt_lib_init_lc_ctype_1
    libinit.o(.ARM.Collect$$libinit$$00000000) refers (Special) to libinit2.o(.ARM.Collect$$libinit$$00000013) for __rt_lib_init_lc_monetary_1
    libinit.o(.ARM.Collect$$libinit$$00000000) refers (Special) to libinit2.o(.ARM.Collect$$libinit$$00000015) for __rt_lib_init_lc_numeric_1
    libinit.o(.ARM.Collect$$libinit$$00000000) refers (Special) to libinit2.o(.ARM.Collect$$libinit$$00000017) for __rt_lib_init_lc_time_1
    libinit.o(.ARM.Collect$$libinit$$00000000) refers (Special) to libinit2.o(.ARM.Collect$$libinit$$0000000C) for __rt_lib_init_rand_1
    libinit.o(.ARM.Collect$$libinit$$00000000) refers (Special) to libinit2.o(.ARM.Collect$$libinit$$00000031) for __rt_lib_init_return
    libinit.o(.ARM.Collect$$libinit$$00000000) refers (Special) to libinit2.o(.ARM.Collect$$libinit$$0000001B) for __rt_lib_init_signal_1
    libinit.o(.ARM.Collect$$libinit$$00000000) refers (Special) to libinit2.o(.ARM.Collect$$libinit$$00000023) for __rt_lib_init_stdio_1
    libinit.o(.ARM.Collect$$libinit$$00000000) refers (Special) to libinit2.o(.ARM.Collect$$libinit$$0000000A) for __rt_lib_init_user_alloc_1
    sys_exit.o(.text) refers (Special) to use_no_semi.o(.text) for __I$use$semihosting
    sys_exit.o(.text) refers (Special) to indicate_semi.o(.text) for __semihosting_library_function
    rtexit.o(.ARM.Collect$$rtexit$$00000000) refers (Special) to rtexit2.o(.ARM.Collect$$rtexit$$00000004) for __rt_exit_exit
    rtexit.o(.ARM.Collect$$rtexit$$00000000) refers (Special) to rtexit2.o(.ARM.Collect$$rtexit$$00000003) for __rt_exit_ls
    rtexit.o(.ARM.Collect$$rtexit$$00000000) refers (Special) to rtexit2.o(.ARM.Collect$$rtexit$$00000002) for __rt_exit_prels_1
    rtexit.o(.ARM.exidx) refers (Special) to rtexit2.o(.ARM.Collect$$rtexit$$00000004) for __rt_exit_exit
    rtexit.o(.ARM.exidx) refers (Special) to rtexit2.o(.ARM.Collect$$rtexit$$00000003) for __rt_exit_ls
    rtexit.o(.ARM.exidx) refers (Special) to rtexit2.o(.ARM.Collect$$rtexit$$00000002) for __rt_exit_prels_1
    rtexit.o(.ARM.exidx) refers to rtexit.o(.ARM.Collect$$rtexit$$00000000) for .ARM.Collect$$rtexit$$00000000
    __raise.o(.text) refers to defsig.o(CL$$defsig) for __default_signal_handler
    defsig_general.o(.text) refers to sys_wrch.o(.text) for _ttywrch
    libshutdown2.o(.ARM.Collect$$libshutdown$$0000000C) refers (Weak) to term_alloc.o(.text) for _terminate_alloc
    sys_wrch.o(.text) refers (Special) to use_no_semi.o(.text) for __I$use$semihosting
    sys_wrch.o(.text) refers (Special) to indicate_semi.o(.text) for __semihosting_library_function
    rtexit2.o(.ARM.Collect$$rtexit$$00000003) refers to libshutdown.o(.ARM.Collect$$libshutdown$$00000000) for __rt_lib_shutdown
    rtexit2.o(.ARM.Collect$$rtexit$$00000004) refers to sys_exit.o(.text) for _sys_exit
    rtexit2.o(.ARM.exidx) refers to rtexit2.o(.ARM.Collect$$rtexit$$00000001) for .ARM.Collect$$rtexit$$00000001
    rtexit2.o(.ARM.exidx) refers to rtexit2.o(.ARM.Collect$$rtexit$$00000003) for .ARM.Collect$$rtexit$$00000003
    rtexit2.o(.ARM.exidx) refers to rtexit2.o(.ARM.Collect$$rtexit$$00000004) for .ARM.Collect$$rtexit$$00000004
    defsig.o(CL$$defsig) refers to defsig_rtmem_inner.o(.text) for __rt_SIGRTMEM_inner
    defsig_abrt_inner.o(.text) refers to defsig_general.o(.text) for __default_signal_display
    defsig_fpe_inner.o(.text) refers to defsig_general.o(.text) for __default_signal_display
    defsig_rtred_inner.o(.text) refers to defsig_general.o(.text) for __default_signal_display
    defsig_stak_inner.o(.text) refers to defsig_general.o(.text) for __default_signal_display
    defsig_pvfn_inner.o(.text) refers to defsig_general.o(.text) for __default_signal_display
    defsig_cppl_inner.o(.text) refers to defsig_general.o(.text) for __default_signal_display
    defsig_segv_inner.o(.text) refers to defsig_general.o(.text) for __default_signal_display
    defsig_other.o(.text) refers to defsig_general.o(.text) for __default_signal_display
    libshutdown.o(.ARM.Collect$$libshutdown$$00000000) refers (Special) to libshutdown2.o(.ARM.Collect$$libshutdown$$00000006) for __rt_lib_shutdown_fp_trap_1
    libshutdown.o(.ARM.Collect$$libshutdown$$00000000) refers (Special) to libshutdown2.o(.ARM.Collect$$libshutdown$$0000000E) for __rt_lib_shutdown_heap_1
    libshutdown.o(.ARM.Collect$$libshutdown$$00000000) refers (Special) to libshutdown2.o(.ARM.Collect$$libshutdown$$0000000F) for __rt_lib_shutdown_return
    libshutdown.o(.ARM.Collect$$libshutdown$$00000000) refers (Special) to libshutdown2.o(.ARM.Collect$$libshutdown$$00000009) for __rt_lib_shutdown_signal_1
    libshutdown.o(.ARM.Collect$$libshutdown$$00000000) refers (Special) to libshutdown2.o(.ARM.Collect$$libshutdown$$00000003) for __rt_lib_shutdown_stdio_1
    libshutdown.o(.ARM.Collect$$libshutdown$$00000000) refers (Special) to libshutdown2.o(.ARM.Collect$$libshutdown$$0000000B) for __rt_lib_shutdown_user_alloc_1


==============================================================================

Removing Unused input sections from the image.

    Removing 3g_log.o(.text), (144 bytes).
    Removing 3g_log.o(.constdata), (11 bytes).
    Removing 3g_watchdog.o(.rev16_text), (4 bytes).
    Removing 3g_watchdog.o(.revsh_text), (4 bytes).
    Removing application.o(.rev16_text), (4 bytes).
    Removing application.o(.revsh_text), (4 bytes).
    Removing bootcfg.o(.rev16_text), (4 bytes).
    Removing bootcfg.o(.revsh_text), (4 bytes).
    Removing bsmac_parser.o(.rev16_text), (4 bytes).
    Removing bsmac_parser.o(.revsh_text), (4 bytes).
    Removing led_indicator.o(.rev16_text), (4 bytes).
    Removing led_indicator.o(.revsh_text), (4 bytes).
    Removing mbus_app.o(.rev16_text), (4 bytes).
    Removing mbus_app.o(.revsh_text), (4 bytes).
    Removing net_app.o(.rev16_text), (4 bytes).
    Removing net_app.o(.revsh_text), (4 bytes).
    Removing open_transmit.o(.text), (92 bytes).
    Removing open_transmit.o(.bss), (64 bytes).
    Removing startup.o(.rev16_text), (4 bytes).
    Removing startup.o(.revsh_text), (4 bytes).
    Removing system_stm32f2xx.o(.rev16_text), (4 bytes).
    Removing system_stm32f2xx.o(.revsh_text), (4 bytes).
    Removing board.o(.rev16_text), (4 bytes).
    Removing board.o(.revsh_text), (4 bytes).
    Removing platform.o(.rev16_text), (4 bytes).
    Removing platform.o(.revsh_text), (4 bytes).
    Removing usart.o(.rev16_text), (4 bytes).
    Removing usart.o(.revsh_text), (4 bytes).
    Removing ext_sram.o(.rev16_text), (4 bytes).
    Removing ext_sram.o(.revsh_text), (4 bytes).
    Removing ext_sram.o(.text), (108 bytes).
    Removing stm32f2xx_it.o(.rev16_text), (4 bytes).
    Removing stm32f2xx_it.o(.revsh_text), (4 bytes).
    Removing stm32_flash.o(.rev16_text), (4 bytes).
    Removing stm32_flash.o(.revsh_text), (4 bytes).
    Removing stm32f2xx_eth.o(.rev16_text), (4 bytes).
    Removing stm32f2xx_eth.o(.revsh_text), (4 bytes).
    Removing stm32f20x_40x_spi.o(.rev16_text), (4 bytes).
    Removing stm32f20x_40x_spi.o(.revsh_text), (4 bytes).
    Removing stm32f2_rtc.o(.rev16_text), (4 bytes).
    Removing stm32f2_rtc.o(.revsh_text), (4 bytes).
    Removing stm32f2_rtc.o(.data), (4 bytes).
    Removing misc.o(.rev16_text), (4 bytes).
    Removing misc.o(.revsh_text), (4 bytes).
    Removing stm32f2xx_adc.o(.rev16_text), (4 bytes).
    Removing stm32f2xx_adc.o(.revsh_text), (4 bytes).
    Removing stm32f2xx_adc.o(.text), (3444 bytes).
    Removing stm32f2xx_adc.o(.constdata), (72 bytes).
    Removing stm32f2xx_can.o(.rev16_text), (4 bytes).
    Removing stm32f2xx_can.o(.revsh_text), (4 bytes).
    Removing stm32f2xx_can.o(.text), (3324 bytes).
    Removing stm32f2xx_can.o(.constdata), (72 bytes).
    Removing stm32f2xx_crc.o(.rev16_text), (4 bytes).
    Removing stm32f2xx_crc.o(.revsh_text), (4 bytes).
    Removing stm32f2xx_crc.o(.text), (64 bytes).
    Removing stm32f2xx_cryp.o(.rev16_text), (4 bytes).
    Removing stm32f2xx_cryp.o(.revsh_text), (4 bytes).
    Removing stm32f2xx_cryp.o(.text), (812 bytes).
    Removing stm32f2xx_cryp.o(.constdata), (72 bytes).
    Removing stm32f2xx_cryp_aes.o(.rev16_text), (4 bytes).
    Removing stm32f2xx_cryp_aes.o(.revsh_text), (4 bytes).
    Removing stm32f2xx_cryp_aes.o(.text), (1230 bytes).
    Removing stm32f2xx_cryp_des.o(.rev16_text), (4 bytes).
    Removing stm32f2xx_cryp_des.o(.revsh_text), (4 bytes).
    Removing stm32f2xx_cryp_des.o(.text), (408 bytes).
    Removing stm32f2xx_cryp_tdes.o(.rev16_text), (4 bytes).
    Removing stm32f2xx_cryp_tdes.o(.revsh_text), (4 bytes).
    Removing stm32f2xx_cryp_tdes.o(.text), (470 bytes).
    Removing stm32f2xx_dac.o(.rev16_text), (4 bytes).
    Removing stm32f2xx_dac.o(.revsh_text), (4 bytes).
    Removing stm32f2xx_dac.o(.text), (1096 bytes).
    Removing stm32f2xx_dac.o(.constdata), (72 bytes).
    Removing stm32f2xx_dbgmcu.o(.rev16_text), (4 bytes).
    Removing stm32f2xx_dbgmcu.o(.revsh_text), (4 bytes).
    Removing stm32f2xx_dbgmcu.o(.text), (188 bytes).
    Removing stm32f2xx_dbgmcu.o(.constdata), (76 bytes).
    Removing stm32f2xx_dcmi.o(.rev16_text), (4 bytes).
    Removing stm32f2xx_dcmi.o(.revsh_text), (4 bytes).
    Removing stm32f2xx_dcmi.o(.text), (684 bytes).
    Removing stm32f2xx_dcmi.o(.constdata), (72 bytes).
    Removing stm32f2xx_dma.o(.rev16_text), (4 bytes).
    Removing stm32f2xx_dma.o(.revsh_text), (4 bytes).
    Removing stm32f2xx_dma.o(.text), (4636 bytes).
    Removing stm32f2xx_dma.o(.constdata), (72 bytes).
    Removing stm32f2xx_exti.o(.rev16_text), (4 bytes).
    Removing stm32f2xx_exti.o(.revsh_text), (4 bytes).
    Removing stm32f2xx_flash.o(.rev16_text), (4 bytes).
    Removing stm32f2xx_flash.o(.revsh_text), (4 bytes).
    Removing stm32f2xx_fsmc.o(.rev16_text), (4 bytes).
    Removing stm32f2xx_fsmc.o(.revsh_text), (4 bytes).
    Removing stm32f2xx_fsmc.o(.text), (2672 bytes).
    Removing stm32f2xx_fsmc.o(.constdata), (72 bytes).
    Removing stm32f2xx_gpio.o(.rev16_text), (4 bytes).
    Removing stm32f2xx_gpio.o(.revsh_text), (4 bytes).
    Removing stm32f2xx_hash.o(.rev16_text), (4 bytes).
    Removing stm32f2xx_hash.o(.revsh_text), (4 bytes).
    Removing stm32f2xx_hash.o(.text), (684 bytes).
    Removing stm32f2xx_hash.o(.constdata), (72 bytes).
    Removing stm32f2xx_hash_md5.o(.rev16_text), (4 bytes).
    Removing stm32f2xx_hash_md5.o(.revsh_text), (4 bytes).
    Removing stm32f2xx_hash_md5.o(.text), (478 bytes).
    Removing stm32f2xx_hash_sha1.o(.rev16_text), (4 bytes).
    Removing stm32f2xx_hash_sha1.o(.revsh_text), (4 bytes).
    Removing stm32f2xx_hash_sha1.o(.text), (490 bytes).
    Removing stm32f2xx_i2c.o(.rev16_text), (4 bytes).
    Removing stm32f2xx_i2c.o(.revsh_text), (4 bytes).
    Removing stm32f2xx_i2c.o(.text), (2868 bytes).
    Removing stm32f2xx_i2c.o(.constdata), (72 bytes).
    Removing stm32f2xx_iwdg.o(.rev16_text), (4 bytes).
    Removing stm32f2xx_iwdg.o(.revsh_text), (4 bytes).
    Removing stm32f2xx_pwr.o(.rev16_text), (4 bytes).
    Removing stm32f2xx_pwr.o(.revsh_text), (4 bytes).
    Removing stm32f2xx_rcc.o(.rev16_text), (4 bytes).
    Removing stm32f2xx_rcc.o(.revsh_text), (4 bytes).
    Removing stm32f2xx_rng.o(.rev16_text), (4 bytes).
    Removing stm32f2xx_rng.o(.revsh_text), (4 bytes).
    Removing stm32f2xx_rng.o(.text), (264 bytes).
    Removing stm32f2xx_rng.o(.constdata), (72 bytes).
    Removing stm32f2xx_rtc.o(.rev16_text), (4 bytes).
    Removing stm32f2xx_rtc.o(.revsh_text), (4 bytes).
    Removing stm32f2xx_sdio.o(.rev16_text), (4 bytes).
    Removing stm32f2xx_sdio.o(.revsh_text), (4 bytes).
    Removing stm32f2xx_sdio.o(.text), (1408 bytes).
    Removing stm32f2xx_sdio.o(.constdata), (72 bytes).
    Removing stm32f2xx_spi.o(.rev16_text), (4 bytes).
    Removing stm32f2xx_spi.o(.revsh_text), (4 bytes).
    Removing stm32f2xx_syscfg.o(.rev16_text), (4 bytes).
    Removing stm32f2xx_syscfg.o(.revsh_text), (4 bytes).
    Removing stm32f2xx_tim.o(.rev16_text), (4 bytes).
    Removing stm32f2xx_tim.o(.revsh_text), (4 bytes).
    Removing stm32f2xx_tim.o(.text), (11484 bytes).
    Removing stm32f2xx_tim.o(.constdata), (72 bytes).
    Removing stm32f2xx_usart.o(.rev16_text), (4 bytes).
    Removing stm32f2xx_usart.o(.revsh_text), (4 bytes).
    Removing stm32f2xx_wwdg.o(.rev16_text), (4 bytes).
    Removing stm32f2xx_wwdg.o(.revsh_text), (4 bytes).
    Removing stm32f2xx_wwdg.o(.text), (220 bytes).
    Removing stm32f2xx_wwdg.o(.constdata), (72 bytes).
    Removing mempool.o(.text), (956 bytes).
    Removing mempool.o(.constdata), (62 bytes).
    Removing mempool.o(.data), (8 bytes).
    Removing backtrace.o(.text), (2 bytes).
    Removing div0.o(.text), (2 bytes).
    Removing showmem.o(.text), (156 bytes).
    Removing showmem.o(.constdata), (18 bytes).
    Removing completion.o(.text), (552 bytes).
    Removing completion.o(.constdata), (57 bytes).
    Removing pipe.o(.text), (680 bytes).
    Removing pipe.o(.constdata), (27 bytes).
    Removing pipe.o(.data), (4 bytes).
    Removing ringbuffer.o(.text), (708 bytes).
    Removing ringbuffer.o(.constdata), (99 bytes).
    Removing netdb.o(.text), (572 bytes).
    Removing netdb.o(.bss), (20 bytes).
    Removing netdb.o(.data), (20 bytes).
    Removing sys.o(.text), (34 bytes).

156 unused section(s) (total 42728 bytes) removed from the image.

==============================================================================

Image Symbol Table

    Local Symbols

    Symbol Name                              Value     Ov Type        Size  Object(Section)

    ../clib/angel/boardlib.s                 0x00000000   Number         0  boardshut.o ABSOLUTE
    ../clib/angel/boardlib.s                 0x00000000   Number         0  boardinit1.o ABSOLUTE
    ../clib/angel/boardlib.s                 0x00000000   Number         0  boardinit3.o ABSOLUTE
    ../clib/angel/boardlib.s                 0x00000000   Number         0  boardinit2.o ABSOLUTE
    ../clib/angel/dczerorl2.s                0x00000000   Number         0  __dczerorl2.o ABSOLUTE
    ../clib/angel/handlers.s                 0x00000000   Number         0  __scatter_zi.o ABSOLUTE
    ../clib/angel/kernel.s                   0x00000000   Number         0  rtexit.o ABSOLUTE
    ../clib/angel/kernel.s                   0x00000000   Number         0  rtentry.o ABSOLUTE
    ../clib/angel/kernel.s                   0x00000000   Number         0  rtexit2.o ABSOLUTE
    ../clib/angel/kernel.s                   0x00000000   Number         0  rtentry2.o ABSOLUTE
    ../clib/angel/kernel.s                   0x00000000   Number         0  rtentry4.o ABSOLUTE
    ../clib/angel/rt.s                       0x00000000   Number         0  rt_locale.o ABSOLUTE
    ../clib/angel/rt.s                       0x00000000   Number         0  rt_locale_intlibspace.o ABSOLUTE
    ../clib/angel/rt.s                       0x00000000   Number         0  rt_ctype_table.o ABSOLUTE
    ../clib/angel/rt.s                       0x00000000   Number         0  rt_errno_addr.o ABSOLUTE
    ../clib/angel/rt.s                       0x00000000   Number         0  rt_raise.o ABSOLUTE
    ../clib/angel/rt.s                       0x00000000   Number         0  rt_heap_descriptor.o ABSOLUTE
    ../clib/angel/rt.s                       0x00000000   Number         0  rt_heap_descriptor_intlibspace.o ABSOLUTE
    ../clib/angel/rt.s                       0x00000000   Number         0  rt_errno_addr_intlibspace.o ABSOLUTE
    ../clib/angel/scatter.s                  0x00000000   Number         0  __scatter.o ABSOLUTE
    ../clib/angel/startup.s                  0x00000000   Number         0  __main.o ABSOLUTE
    ../clib/angel/sys.s                      0x00000000   Number         0  use_no_semi.o ABSOLUTE
    ../clib/angel/sys.s                      0x00000000   Number         0  indicate_semi.o ABSOLUTE
    ../clib/angel/sys.s                      0x00000000   Number         0  libspace.o ABSOLUTE
    ../clib/angel/sys.s                      0x00000000   Number         0  mutex_dummy.o ABSOLUTE
    ../clib/angel/sys.s                      0x00000000   Number         0  sys_stackheap_outer.o ABSOLUTE
    ../clib/angel/sysapp.c                   0x00000000   Number         0  sys_wrch.o ABSOLUTE
    ../clib/angel/sysapp.c                   0x00000000   Number         0  sys_exit.o ABSOLUTE
    ../clib/angel/sysapp.c                   0x00000000   Number         0  sys_command.o ABSOLUTE
    ../clib/armsys.c                         0x00000000   Number         0  _get_argv.o ABSOLUTE
    ../clib/armsys.c                         0x00000000   Number         0  argv_veneer.o ABSOLUTE
    ../clib/armsys.c                         0x00000000   Number         0  no_argv.o ABSOLUTE
    ../clib/armsys.c                         0x00000000   Number         0  argv_veneer.o ABSOLUTE
    ../clib/armsys.c                         0x00000000   Number         0  _get_argv_nomalloc.o ABSOLUTE
    ../clib/ctype.c                          0x00000000   Number         0  tolower.o ABSOLUTE
    ../clib/heap1.c                          0x00000000   Number         0  h1_final_mt.o ABSOLUTE
    ../clib/heap1.c                          0x00000000   Number         0  h1_final.o ABSOLUTE
    ../clib/heap1.c                          0x00000000   Number         0  h1_extend_mt.o ABSOLUTE
    ../clib/heap1.c                          0x00000000   Number         0  h1_extend.o ABSOLUTE
    ../clib/heap1.c                          0x00000000   Number         0  h1_init_mt.o ABSOLUTE
    ../clib/heap1.c                          0x00000000   Number         0  h1_init.o ABSOLUTE
    ../clib/heap1.c                          0x00000000   Number         0  h1_alloc.o ABSOLUTE
    ../clib/heap1.c                          0x00000000   Number         0  h1_free.o ABSOLUTE
    ../clib/heap1.c                          0x00000000   Number         0  h1_alloc_mt.o ABSOLUTE
    ../clib/heap1.c                          0x00000000   Number         0  h1_free_mt.o ABSOLUTE
    ../clib/heap2.c                          0x00000000   Number         0  fdtree.o ABSOLUTE
    ../clib/heap2.c                          0x00000000   Number         0  heap2mt.o ABSOLUTE
    ../clib/heap2.c                          0x00000000   Number         0  heap2.o ABSOLUTE
    ../clib/heapalloc.c                      0x00000000   Number         0  maybetermalloc1.o ABSOLUTE
    ../clib/heapalloc.c                      0x00000000   Number         0  maybetermalloc1.o ABSOLUTE
    ../clib/heapalloc.c                      0x00000000   Number         0  malloc.o ABSOLUTE
    ../clib/heapalloc.c                      0x00000000   Number         0  maybetermalloc2.o ABSOLUTE
    ../clib/heapalloc.c                      0x00000000   Number         0  free.o ABSOLUTE
    ../clib/heapalloc.c                      0x00000000   Number         0  term_alloc.o ABSOLUTE
    ../clib/heapalloc.c                      0x00000000   Number         0  hguard.o ABSOLUTE
    ../clib/heapalloc.c                      0x00000000   Number         0  init_alloc.o ABSOLUTE
    ../clib/heapalloc.c                      0x00000000   Number         0  heapstubs.o ABSOLUTE
    ../clib/heapalloc.c                      0x00000000   Number         0  hrguard.o ABSOLUTE
    ../clib/heapalloc.c                      0x00000000   Number         0  maybetermalloc2.o ABSOLUTE
    ../clib/heapaux.c                        0x00000000   Number         0  heapauxi.o ABSOLUTE
    ../clib/heapaux.c                        0x00000000   Number         0  heapauxa.o ABSOLUTE
    ../clib/libinit.s                        0x00000000   Number         0  libinit.o ABSOLUTE
    ../clib/libinit.s                        0x00000000   Number         0  libinit2.o ABSOLUTE
    ../clib/libinit.s                        0x00000000   Number         0  libshutdown2.o ABSOLUTE
    ../clib/libinit.s                        0x00000000   Number         0  libshutdown.o ABSOLUTE
    ../clib/locale.s                         0x00000000   Number         0  lc_ctype_c.o ABSOLUTE
    ../clib/memcpset.s                       0x00000000   Number         0  rt_memcpy_v6.o ABSOLUTE
    ../clib/memcpset.s                       0x00000000   Number         0  strcmpv7m.o ABSOLUTE
    ../clib/memcpset.s                       0x00000000   Number         0  rt_memclr_w.o ABSOLUTE
    ../clib/memcpset.s                       0x00000000   Number         0  rt_memclr.o ABSOLUTE
    ../clib/memcpset.s                       0x00000000   Number         0  rt_memcpy_w.o ABSOLUTE
    ../clib/memcpset.s                       0x00000000   Number         0  strncpy.o ABSOLUTE
    ../clib/misc.s                           0x00000000   Number         0  printf_stubs.o ABSOLUTE
    ../clib/printf.c                         0x00000000   Number         0  _printf_hex_ll_ptr.o ABSOLUTE
    ../clib/printf.c                         0x00000000   Number         0  _printf_hex_int_ptr.o ABSOLUTE
    ../clib/printf.c                         0x00000000   Number         0  _printf_hex_ptr.o ABSOLUTE
    ../clib/printf.c                         0x00000000   Number         0  _snputc.o ABSOLUTE
    ../clib/printf.c                         0x00000000   Number         0  _printf_char.o ABSOLUTE
    ../clib/printf.c                         0x00000000   Number         0  _printf_hex_int_ll.o ABSOLUTE
    ../clib/printf.c                         0x00000000   Number         0  _printf_hex_int.o ABSOLUTE
    ../clib/printf.c                         0x00000000   Number         0  _printf_hex_ll.o ABSOLUTE
    ../clib/printf.c                         0x00000000   Number         0  _printf_dec.o ABSOLUTE
    ../clib/printf.c                         0x00000000   Number         0  _printf_str.o ABSOLUTE
    ../clib/printf.c                         0x00000000   Number         0  _printf_pad.o ABSOLUTE
    ../clib/printf.c                         0x00000000   Number         0  __printf.o ABSOLUTE
    ../clib/printf.c                         0x00000000   Number         0  noretval__2snprintf.o ABSOLUTE
    ../clib/printf.c                         0x00000000   Number         0  __printf_nopercent.o ABSOLUTE
    ../clib/printf.c                         0x00000000   Number         0  _printf_intcommon.o ABSOLUTE
    ../clib/printf.c                         0x00000000   Number         0  __2snprintf.o ABSOLUTE
    ../clib/printf.c                         0x00000000   Number         0  _printf_char_common.o ABSOLUTE
    ../clib/printf.c                         0x00000000   Number         0  _sputc.o ABSOLUTE
    ../clib/printf.c                         0x00000000   Number         0  __printf_flags_ss_wp.o ABSOLUTE
    ../clib/printf.c                         0x00000000   Number         0  __printf_ss_wp.o ABSOLUTE
    ../clib/printf.c                         0x00000000   Number         0  __printf_flags_wp.o ABSOLUTE
    ../clib/printf.c                         0x00000000   Number         0  __printf_wp.o ABSOLUTE
    ../clib/printf.c                         0x00000000   Number         0  __printf_flags_ss.o ABSOLUTE
    ../clib/printf.c                         0x00000000   Number         0  __printf_ss.o ABSOLUTE
    ../clib/printf.c                         0x00000000   Number         0  __printf_flags.o ABSOLUTE
    ../clib/printf.c                         0x00000000   Number         0  _printf_hex_int_ll_ptr.o ABSOLUTE
    ../clib/printf_percent.s                 0x00000000   Number         0  _printf_percent_end.o ABSOLUTE
    ../clib/printf_percent.s                 0x00000000   Number         0  _printf_percent.o ABSOLUTE
    ../clib/printf_percent.s                 0x00000000   Number         0  _printf_x.o ABSOLUTE
    ../clib/printf_percent.s                 0x00000000   Number         0  _printf_s.o ABSOLUTE
    ../clib/printf_percent.s                 0x00000000   Number         0  _printf_d.o ABSOLUTE
    ../clib/scanf.c                          0x00000000   Number         0  strtol.o ABSOLUTE
    ../clib/scanf.c                          0x00000000   Number         0  _chval.o ABSOLUTE
    ../clib/scanf.c                          0x00000000   Number         0  _strtoul.o ABSOLUTE
    ../clib/scanf.c                          0x00000000   Number         0  atoi.o ABSOLUTE
    ../clib/signal.c                         0x00000000   Number         0  defsig_cppl_inner.o ABSOLUTE
    ../clib/signal.c                         0x00000000   Number         0  defsig_segv_inner.o ABSOLUTE
    ../clib/signal.c                         0x00000000   Number         0  defsig_other.o ABSOLUTE
    ../clib/signal.c                         0x00000000   Number         0  defsig_rtmem_formal.o ABSOLUTE
    ../clib/signal.c                         0x00000000   Number         0  defsig_exit.o ABSOLUTE
    ../clib/signal.c                         0x00000000   Number         0  defsig_rtmem_outer.o ABSOLUTE
    ../clib/signal.c                         0x00000000   Number         0  defsig_rtmem_inner.o ABSOLUTE
    ../clib/signal.c                         0x00000000   Number         0  __raise.o ABSOLUTE
    ../clib/signal.c                         0x00000000   Number         0  defsig_general.o ABSOLUTE
    ../clib/signal.c                         0x00000000   Number         0  defsig_pvfn_inner.o ABSOLUTE
    ../clib/signal.c                         0x00000000   Number         0  defsig_abrt_inner.o ABSOLUTE
    ../clib/signal.c                         0x00000000   Number         0  defsig_fpe_inner.o ABSOLUTE
    ../clib/signal.c                         0x00000000   Number         0  defsig_rtred_inner.o ABSOLUTE
    ../clib/signal.c                         0x00000000   Number         0  defsig_stak_inner.o ABSOLUTE
    ../clib/signal.s                         0x00000000   Number         0  defsig.o ABSOLUTE
    ../clib/stdlib.c                         0x00000000   Number         0  exit.o ABSOLUTE
    ../clib/string.c                         0x00000000   Number         0  strchr.o ABSOLUTE
    ../clib/string.c                         0x00000000   Number         0  strncasecmp.o ABSOLUTE
    ../clib/string.c                         0x00000000   Number         0  strcasecmp.o ABSOLUTE
    ../clib/string.c                         0x00000000   Number         0  strlen.o ABSOLUTE
    ../clib/string.c                         0x00000000   Number         0  strncmp.o ABSOLUTE
    ../clib/time.c                           0x00000000   Number         0  _monlen.o ABSOLUTE
    ../clib/time.c                           0x00000000   Number         0  mktime.o ABSOLUTE
    ../clib/time.c                           0x00000000   Number         0  localtime_internal.o ABSOLUTE
    ../clib/time.c                           0x00000000   Number         0  localtime.o ABSOLUTE
    ../fplib/fpinit.s                        0x00000000   Number         0  fpinit.o ABSOLUTE
    ..\..\..\..\common\crc.c                 0x00000000   Number         0  crc.o ABSOLUTE
    ..\..\rt-thread\components\dfs\filesystems\elmfat\dfs_elm.c 0x00000000   Number         0  dfs_elm.o ABSOLUTE
    ..\..\rt-thread\components\dfs\filesystems\elmfat\ff.c 0x00000000   Number         0  ff.o ABSOLUTE
    ..\..\rt-thread\components\dfs\src\dfs.c 0x00000000   Number         0  dfs.o ABSOLUTE
    ..\..\rt-thread\components\dfs\src\dfs_file.c 0x00000000   Number         0  dfs_file.o ABSOLUTE
    ..\..\rt-thread\components\dfs\src\dfs_fs.c 0x00000000   Number         0  dfs_fs.o ABSOLUTE
    ..\..\rt-thread\components\dfs\src\dfs_posix.c 0x00000000   Number         0  dfs_posix.o ABSOLUTE
    ..\..\rt-thread\components\drivers\rtc\rtc.c 0x00000000   Number         0  rtc.o ABSOLUTE
    ..\..\rt-thread\components\drivers\serial\serial.c 0x00000000   Number         0  serial.o ABSOLUTE
    ..\..\rt-thread\components\drivers\spi\spi_core.c 0x00000000   Number         0  spi_core.o ABSOLUTE
    ..\..\rt-thread\components\drivers\spi\spi_dev.c 0x00000000   Number         0  spi_dev.o ABSOLUTE
    ..\..\rt-thread\components\drivers\src\completion.c 0x00000000   Number         0  completion.o ABSOLUTE
    ..\..\rt-thread\components\drivers\src\dataqueue.c 0x00000000   Number         0  dataqueue.o ABSOLUTE
    ..\..\rt-thread\components\drivers\src\pipe.c 0x00000000   Number         0  pipe.o ABSOLUTE
    ..\..\rt-thread\components\drivers\src\ringbuffer.c 0x00000000   Number         0  ringbuffer.o ABSOLUTE
    ..\..\rt-thread\components\init\components.c 0x00000000   Number         0  components.o ABSOLUTE
    ..\..\rt-thread\components\net\lwip\src\api\api_lib.c 0x00000000   Number         0  api_lib.o ABSOLUTE
    ..\..\rt-thread\components\net\lwip\src\api\api_msg.c 0x00000000   Number         0  api_msg.o ABSOLUTE
    ..\..\rt-thread\components\net\lwip\src\api\err.c 0x00000000   Number         0  err.o ABSOLUTE
    ..\..\rt-thread\components\net\lwip\src\api\netbuf.c 0x00000000   Number         0  netbuf.o ABSOLUTE
    ..\..\rt-thread\components\net\lwip\src\api\netdb.c 0x00000000   Number         0  netdb.o ABSOLUTE
    ..\..\rt-thread\components\net\lwip\src\api\netifapi.c 0x00000000   Number         0  netifapi.o ABSOLUTE
    ..\..\rt-thread\components\net\lwip\src\api\sockets.c 0x00000000   Number         0  sockets.o ABSOLUTE
    ..\..\rt-thread\components\net\lwip\src\api\tcpip.c 0x00000000   Number         0  tcpip.o ABSOLUTE
    ..\..\rt-thread\components\net\lwip\src\arch\sys_arch.c 0x00000000   Number         0  sys_arch.o ABSOLUTE
    ..\..\rt-thread\components\net\lwip\src\core\def.c 0x00000000   Number         0  def.o ABSOLUTE
    ..\..\rt-thread\components\net\lwip\src\core\dhcp.c 0x00000000   Number         0  dhcp.o ABSOLUTE
    ..\..\rt-thread\components\net\lwip\src\core\dns.c 0x00000000   Number         0  dns.o ABSOLUTE
    ..\..\rt-thread\components\net\lwip\src\core\init.c 0x00000000   Number         0  init.o ABSOLUTE
    ..\..\rt-thread\components\net\lwip\src\core\ipv4\autoip.c 0x00000000   Number         0  autoip.o ABSOLUTE
    ..\..\rt-thread\components\net\lwip\src\core\ipv4\icmp.c 0x00000000   Number         0  icmp.o ABSOLUTE
    ..\..\rt-thread\components\net\lwip\src\core\ipv4\igmp.c 0x00000000   Number         0  igmp.o ABSOLUTE
    ..\..\rt-thread\components\net\lwip\src\core\ipv4\inet.c 0x00000000   Number         0  inet.o ABSOLUTE
    ..\..\rt-thread\components\net\lwip\src\core\ipv4\inet_chksum.c 0x00000000   Number         0  inet_chksum.o ABSOLUTE
    ..\..\rt-thread\components\net\lwip\src\core\ipv4\ip.c 0x00000000   Number         0  ip.o ABSOLUTE
    ..\..\rt-thread\components\net\lwip\src\core\ipv4\ip_addr.c 0x00000000   Number         0  ip_addr.o ABSOLUTE
    ..\..\rt-thread\components\net\lwip\src\core\ipv4\ip_frag.c 0x00000000   Number         0  ip_frag.o ABSOLUTE
    ..\..\rt-thread\components\net\lwip\src\core\memp.c 0x00000000   Number         0  memp.o ABSOLUTE
    ..\..\rt-thread\components\net\lwip\src\core\netif.c 0x00000000   Number         0  netif.o ABSOLUTE
    ..\..\rt-thread\components\net\lwip\src\core\pbuf.c 0x00000000   Number         0  pbuf.o ABSOLUTE
    ..\..\rt-thread\components\net\lwip\src\core\raw.c 0x00000000   Number         0  raw.o ABSOLUTE
    ..\..\rt-thread\components\net\lwip\src\core\stats.c 0x00000000   Number         0  stats.o ABSOLUTE
    ..\..\rt-thread\components\net\lwip\src\core\sys.c 0x00000000   Number         0  sys.o ABSOLUTE
    ..\..\rt-thread\components\net\lwip\src\core\tcp.c 0x00000000   Number         0  tcp.o ABSOLUTE
    ..\..\rt-thread\components\net\lwip\src\core\tcp_in.c 0x00000000   Number         0  tcp_in.o ABSOLUTE
    ..\..\rt-thread\components\net\lwip\src\core\tcp_out.c 0x00000000   Number         0  tcp_out.o ABSOLUTE
    ..\..\rt-thread\components\net\lwip\src\core\timers.c 0x00000000   Number         0  timers.o ABSOLUTE
    ..\..\rt-thread\components\net\lwip\src\core\udp.c 0x00000000   Number         0  udp.o ABSOLUTE
    ..\..\rt-thread\components\net\lwip\src\netif\etharp.c 0x00000000   Number         0  etharp.o ABSOLUTE
    ..\..\rt-thread\components\net\lwip\src\netif\ethernetif.c 0x00000000   Number         0  ethernetif.o ABSOLUTE
    ..\..\rt-thread\components\net\lwip\src\netif\slipif.c 0x00000000   Number         0  slipif.o ABSOLUTE
    ..\..\rt-thread\libcpu\arm\common\backtrace.c 0x00000000   Number         0  backtrace.o ABSOLUTE
    ..\..\rt-thread\libcpu\arm\common\div0.c 0x00000000   Number         0  div0.o ABSOLUTE
    ..\..\rt-thread\libcpu\arm\common\showmem.c 0x00000000   Number         0  showmem.o ABSOLUTE
    ..\..\rt-thread\libcpu\arm\cortex-m4\context_rvds.S 0x00000000   Number         0  context_rvds.o ABSOLUTE
    ..\..\rt-thread\libcpu\arm\cortex-m4\cpuport.c 0x00000000   Number         0  cpuport.o ABSOLUTE
    ..\..\rt-thread\src\clock.c              0x00000000   Number         0  clock.o ABSOLUTE
    ..\..\rt-thread\src\device.c             0x00000000   Number         0  device.o ABSOLUTE
    ..\..\rt-thread\src\idle.c               0x00000000   Number         0  idle.o ABSOLUTE
    ..\..\rt-thread\src\ipc.c                0x00000000   Number         0  ipc.o ABSOLUTE
    ..\..\rt-thread\src\irq.c                0x00000000   Number         0  irq.o ABSOLUTE
    ..\..\rt-thread\src\kservice.c           0x00000000   Number         0  kservice.o ABSOLUTE
    ..\..\rt-thread\src\mem.c                0x00000000   Number         0  mem.o ABSOLUTE
    ..\..\rt-thread\src\mempool.c            0x00000000   Number         0  mempool.o ABSOLUTE
    ..\..\rt-thread\src\object.c             0x00000000   Number         0  object.o ABSOLUTE
    ..\..\rt-thread\src\scheduler.c          0x00000000   Number         0  scheduler.o ABSOLUTE
    ..\..\rt-thread\src\thread.c             0x00000000   Number         0  thread.o ABSOLUTE
    ..\..\rt-thread\src\timer.c              0x00000000   Number         0  timer.o ABSOLUTE
    ..\STM32F2xx_Libraries\CMSIS\Device\ST\STM32F2xx\Source\Templates\arm\startup_stm32f2xx.s 0x00000000   Number         0  startup_stm32f2xx.o ABSOLUTE
    ..\STM32F2xx_Libraries\STM32F2xx_StdPeriph_Driver\src\misc.c 0x00000000   Number         0  misc.o ABSOLUTE
    ..\STM32F2xx_Libraries\STM32F2xx_StdPeriph_Driver\src\stm32f2xx_adc.c 0x00000000   Number         0  stm32f2xx_adc.o ABSOLUTE
    ..\STM32F2xx_Libraries\STM32F2xx_StdPeriph_Driver\src\stm32f2xx_can.c 0x00000000   Number         0  stm32f2xx_can.o ABSOLUTE
    ..\STM32F2xx_Libraries\STM32F2xx_StdPeriph_Driver\src\stm32f2xx_crc.c 0x00000000   Number         0  stm32f2xx_crc.o ABSOLUTE
    ..\STM32F2xx_Libraries\STM32F2xx_StdPeriph_Driver\src\stm32f2xx_cryp.c 0x00000000   Number         0  stm32f2xx_cryp.o ABSOLUTE
    ..\STM32F2xx_Libraries\STM32F2xx_StdPeriph_Driver\src\stm32f2xx_cryp_aes.c 0x00000000   Number         0  stm32f2xx_cryp_aes.o ABSOLUTE
    ..\STM32F2xx_Libraries\STM32F2xx_StdPeriph_Driver\src\stm32f2xx_cryp_des.c 0x00000000   Number         0  stm32f2xx_cryp_des.o ABSOLUTE
    ..\STM32F2xx_Libraries\STM32F2xx_StdPeriph_Driver\src\stm32f2xx_cryp_tdes.c 0x00000000   Number         0  stm32f2xx_cryp_tdes.o ABSOLUTE
    ..\STM32F2xx_Libraries\STM32F2xx_StdPeriph_Driver\src\stm32f2xx_dac.c 0x00000000   Number         0  stm32f2xx_dac.o ABSOLUTE
    ..\STM32F2xx_Libraries\STM32F2xx_StdPeriph_Driver\src\stm32f2xx_dbgmcu.c 0x00000000   Number         0  stm32f2xx_dbgmcu.o ABSOLUTE
    ..\STM32F2xx_Libraries\STM32F2xx_StdPeriph_Driver\src\stm32f2xx_dcmi.c 0x00000000   Number         0  stm32f2xx_dcmi.o ABSOLUTE
    ..\STM32F2xx_Libraries\STM32F2xx_StdPeriph_Driver\src\stm32f2xx_dma.c 0x00000000   Number         0  stm32f2xx_dma.o ABSOLUTE
    ..\STM32F2xx_Libraries\STM32F2xx_StdPeriph_Driver\src\stm32f2xx_exti.c 0x00000000   Number         0  stm32f2xx_exti.o ABSOLUTE
    ..\STM32F2xx_Libraries\STM32F2xx_StdPeriph_Driver\src\stm32f2xx_flash.c 0x00000000   Number         0  stm32f2xx_flash.o ABSOLUTE
    ..\STM32F2xx_Libraries\STM32F2xx_StdPeriph_Driver\src\stm32f2xx_fsmc.c 0x00000000   Number         0  stm32f2xx_fsmc.o ABSOLUTE
    ..\STM32F2xx_Libraries\STM32F2xx_StdPeriph_Driver\src\stm32f2xx_gpio.c 0x00000000   Number         0  stm32f2xx_gpio.o ABSOLUTE
    ..\STM32F2xx_Libraries\STM32F2xx_StdPeriph_Driver\src\stm32f2xx_hash.c 0x00000000   Number         0  stm32f2xx_hash.o ABSOLUTE
    ..\STM32F2xx_Libraries\STM32F2xx_StdPeriph_Driver\src\stm32f2xx_hash_md5.c 0x00000000   Number         0  stm32f2xx_hash_md5.o ABSOLUTE
    ..\STM32F2xx_Libraries\STM32F2xx_StdPeriph_Driver\src\stm32f2xx_hash_sha1.c 0x00000000   Number         0  stm32f2xx_hash_sha1.o ABSOLUTE
    ..\STM32F2xx_Libraries\STM32F2xx_StdPeriph_Driver\src\stm32f2xx_i2c.c 0x00000000   Number         0  stm32f2xx_i2c.o ABSOLUTE
    ..\STM32F2xx_Libraries\STM32F2xx_StdPeriph_Driver\src\stm32f2xx_iwdg.c 0x00000000   Number         0  stm32f2xx_iwdg.o ABSOLUTE
    ..\STM32F2xx_Libraries\STM32F2xx_StdPeriph_Driver\src\stm32f2xx_pwr.c 0x00000000   Number         0  stm32f2xx_pwr.o ABSOLUTE
    ..\STM32F2xx_Libraries\STM32F2xx_StdPeriph_Driver\src\stm32f2xx_rcc.c 0x00000000   Number         0  stm32f2xx_rcc.o ABSOLUTE
    ..\STM32F2xx_Libraries\STM32F2xx_StdPeriph_Driver\src\stm32f2xx_rng.c 0x00000000   Number         0  stm32f2xx_rng.o ABSOLUTE
    ..\STM32F2xx_Libraries\STM32F2xx_StdPeriph_Driver\src\stm32f2xx_rtc.c 0x00000000   Number         0  stm32f2xx_rtc.o ABSOLUTE
    ..\STM32F2xx_Libraries\STM32F2xx_StdPeriph_Driver\src\stm32f2xx_sdio.c 0x00000000   Number         0  stm32f2xx_sdio.o ABSOLUTE
    ..\STM32F2xx_Libraries\STM32F2xx_StdPeriph_Driver\src\stm32f2xx_spi.c 0x00000000   Number         0  stm32f2xx_spi.o ABSOLUTE
    ..\STM32F2xx_Libraries\STM32F2xx_StdPeriph_Driver\src\stm32f2xx_syscfg.c 0x00000000   Number         0  stm32f2xx_syscfg.o ABSOLUTE
    ..\STM32F2xx_Libraries\STM32F2xx_StdPeriph_Driver\src\stm32f2xx_tim.c 0x00000000   Number         0  stm32f2xx_tim.o ABSOLUTE
    ..\STM32F2xx_Libraries\STM32F2xx_StdPeriph_Driver\src\stm32f2xx_usart.c 0x00000000   Number         0  stm32f2xx_usart.o ABSOLUTE
    ..\STM32F2xx_Libraries\STM32F2xx_StdPeriph_Driver\src\stm32f2xx_wwdg.c 0x00000000   Number         0  stm32f2xx_wwdg.o ABSOLUTE
    ..\\STM32F2xx_Libraries\\STM32F2xx_StdPeriph_Driver\\src\\misc.c 0x00000000   Number         0  misc.o ABSOLUTE
    ..\\STM32F2xx_Libraries\\STM32F2xx_StdPeriph_Driver\\src\\stm32f2xx_adc.c 0x00000000   Number         0  stm32f2xx_adc.o ABSOLUTE
    ..\\STM32F2xx_Libraries\\STM32F2xx_StdPeriph_Driver\\src\\stm32f2xx_can.c 0x00000000   Number         0  stm32f2xx_can.o ABSOLUTE
    ..\\STM32F2xx_Libraries\\STM32F2xx_StdPeriph_Driver\\src\\stm32f2xx_crc.c 0x00000000   Number         0  stm32f2xx_crc.o ABSOLUTE
    ..\\STM32F2xx_Libraries\\STM32F2xx_StdPeriph_Driver\\src\\stm32f2xx_cryp.c 0x00000000   Number         0  stm32f2xx_cryp.o ABSOLUTE
    ..\\STM32F2xx_Libraries\\STM32F2xx_StdPeriph_Driver\\src\\stm32f2xx_cryp_aes.c 0x00000000   Number         0  stm32f2xx_cryp_aes.o ABSOLUTE
    ..\\STM32F2xx_Libraries\\STM32F2xx_StdPeriph_Driver\\src\\stm32f2xx_cryp_des.c 0x00000000   Number         0  stm32f2xx_cryp_des.o ABSOLUTE
    ..\\STM32F2xx_Libraries\\STM32F2xx_StdPeriph_Driver\\src\\stm32f2xx_cryp_tdes.c 0x00000000   Number         0  stm32f2xx_cryp_tdes.o ABSOLUTE
    ..\\STM32F2xx_Libraries\\STM32F2xx_StdPeriph_Driver\\src\\stm32f2xx_dac.c 0x00000000   Number         0  stm32f2xx_dac.o ABSOLUTE
    ..\\STM32F2xx_Libraries\\STM32F2xx_StdPeriph_Driver\\src\\stm32f2xx_dbgmcu.c 0x00000000   Number         0  stm32f2xx_dbgmcu.o ABSOLUTE
    ..\\STM32F2xx_Libraries\\STM32F2xx_StdPeriph_Driver\\src\\stm32f2xx_dcmi.c 0x00000000   Number         0  stm32f2xx_dcmi.o ABSOLUTE
    ..\\STM32F2xx_Libraries\\STM32F2xx_StdPeriph_Driver\\src\\stm32f2xx_dma.c 0x00000000   Number         0  stm32f2xx_dma.o ABSOLUTE
    ..\\STM32F2xx_Libraries\\STM32F2xx_StdPeriph_Driver\\src\\stm32f2xx_exti.c 0x00000000   Number         0  stm32f2xx_exti.o ABSOLUTE
    ..\\STM32F2xx_Libraries\\STM32F2xx_StdPeriph_Driver\\src\\stm32f2xx_flash.c 0x00000000   Number         0  stm32f2xx_flash.o ABSOLUTE
    ..\\STM32F2xx_Libraries\\STM32F2xx_StdPeriph_Driver\\src\\stm32f2xx_fsmc.c 0x00000000   Number         0  stm32f2xx_fsmc.o ABSOLUTE
    ..\\STM32F2xx_Libraries\\STM32F2xx_StdPeriph_Driver\\src\\stm32f2xx_gpio.c 0x00000000   Number         0  stm32f2xx_gpio.o ABSOLUTE
    ..\\STM32F2xx_Libraries\\STM32F2xx_StdPeriph_Driver\\src\\stm32f2xx_hash.c 0x00000000   Number         0  stm32f2xx_hash.o ABSOLUTE
    ..\\STM32F2xx_Libraries\\STM32F2xx_StdPeriph_Driver\\src\\stm32f2xx_hash_md5.c 0x00000000   Number         0  stm32f2xx_hash_md5.o ABSOLUTE
    ..\\STM32F2xx_Libraries\\STM32F2xx_StdPeriph_Driver\\src\\stm32f2xx_hash_sha1.c 0x00000000   Number         0  stm32f2xx_hash_sha1.o ABSOLUTE
    ..\\STM32F2xx_Libraries\\STM32F2xx_StdPeriph_Driver\\src\\stm32f2xx_i2c.c 0x00000000   Number         0  stm32f2xx_i2c.o ABSOLUTE
    ..\\STM32F2xx_Libraries\\STM32F2xx_StdPeriph_Driver\\src\\stm32f2xx_iwdg.c 0x00000000   Number         0  stm32f2xx_iwdg.o ABSOLUTE
    ..\\STM32F2xx_Libraries\\STM32F2xx_StdPeriph_Driver\\src\\stm32f2xx_pwr.c 0x00000000   Number         0  stm32f2xx_pwr.o ABSOLUTE
    ..\\STM32F2xx_Libraries\\STM32F2xx_StdPeriph_Driver\\src\\stm32f2xx_rcc.c 0x00000000   Number         0  stm32f2xx_rcc.o ABSOLUTE
    ..\\STM32F2xx_Libraries\\STM32F2xx_StdPeriph_Driver\\src\\stm32f2xx_rng.c 0x00000000   Number         0  stm32f2xx_rng.o ABSOLUTE
    ..\\STM32F2xx_Libraries\\STM32F2xx_StdPeriph_Driver\\src\\stm32f2xx_rtc.c 0x00000000   Number         0  stm32f2xx_rtc.o ABSOLUTE
    ..\\STM32F2xx_Libraries\\STM32F2xx_StdPeriph_Driver\\src\\stm32f2xx_sdio.c 0x00000000   Number         0  stm32f2xx_sdio.o ABSOLUTE
    ..\\STM32F2xx_Libraries\\STM32F2xx_StdPeriph_Driver\\src\\stm32f2xx_spi.c 0x00000000   Number         0  stm32f2xx_spi.o ABSOLUTE
    ..\\STM32F2xx_Libraries\\STM32F2xx_StdPeriph_Driver\\src\\stm32f2xx_syscfg.c 0x00000000   Number         0  stm32f2xx_syscfg.o ABSOLUTE
    ..\\STM32F2xx_Libraries\\STM32F2xx_StdPeriph_Driver\\src\\stm32f2xx_tim.c 0x00000000   Number         0  stm32f2xx_tim.o ABSOLUTE
    ..\\STM32F2xx_Libraries\\STM32F2xx_StdPeriph_Driver\\src\\stm32f2xx_usart.c 0x00000000   Number         0  stm32f2xx_usart.o ABSOLUTE
    ..\\STM32F2xx_Libraries\\STM32F2xx_StdPeriph_Driver\\src\\stm32f2xx_wwdg.c 0x00000000   Number         0  stm32f2xx_wwdg.o ABSOLUTE
    applications\3g_log.c                    0x00000000   Number         0  3g_log.o ABSOLUTE
    applications\3g_watchdog.c               0x00000000   Number         0  3g_watchdog.o ABSOLUTE
    applications\\3g_watchdog.c              0x00000000   Number         0  3g_watchdog.o ABSOLUTE
    applications\\application.c              0x00000000   Number         0  application.o ABSOLUTE
    applications\\bootcfg.c                  0x00000000   Number         0  bootcfg.o ABSOLUTE
    applications\\bsmac_parser.c             0x00000000   Number         0  bsmac_parser.o ABSOLUTE
    applications\\led_indicator.c            0x00000000   Number         0  led_indicator.o ABSOLUTE
    applications\\mbus_app.c                 0x00000000   Number         0  mbus_app.o ABSOLUTE
    applications\\net_app.c                  0x00000000   Number         0  net_app.o ABSOLUTE
    applications\\startup.c                  0x00000000   Number         0  startup.o ABSOLUTE
    applications\\system_stm32f2xx.c         0x00000000   Number         0  system_stm32f2xx.o ABSOLUTE
    applications\application.c               0x00000000   Number         0  application.o ABSOLUTE
    applications\bootcfg.c                   0x00000000   Number         0  bootcfg.o ABSOLUTE
    applications\bsmac_parser.c              0x00000000   Number         0  bsmac_parser.o ABSOLUTE
    applications\led_indicator.c             0x00000000   Number         0  led_indicator.o ABSOLUTE
    applications\location_data.c             0x00000000   Number         0  location_data.o ABSOLUTE
    applications\mbus_app.c                  0x00000000   Number         0  mbus_app.o ABSOLUTE
    applications\msg_center.c                0x00000000   Number         0  msg_center.o ABSOLUTE
    applications\net_app.c                   0x00000000   Number         0  net_app.o ABSOLUTE
    applications\open_transmit.c             0x00000000   Number         0  open_transmit.o ABSOLUTE
    applications\startup.c                   0x00000000   Number         0  startup.o ABSOLUTE
    applications\system_stm32f2xx.c          0x00000000   Number         0  system_stm32f2xx.o ABSOLUTE
    applications\upgrade_flag.c              0x00000000   Number         0  upgrade_flag.o ABSOLUTE
    dc.s                                     0x00000000   Number         0  dc.o ABSOLUTE
    drivers\\board.c                         0x00000000   Number         0  board.o ABSOLUTE
    drivers\\ext_sram.c                      0x00000000   Number         0  ext_sram.o ABSOLUTE
    drivers\\platform.c                      0x00000000   Number         0  platform.o ABSOLUTE
    drivers\\stm32_flash.c                   0x00000000   Number         0  stm32_flash.o ABSOLUTE
    drivers\\stm32f20x_40x_spi.c             0x00000000   Number         0  stm32f20x_40x_spi.o ABSOLUTE
    drivers\\stm32f2_rtc.c                   0x00000000   Number         0  stm32f2_rtc.o ABSOLUTE
    drivers\\stm32f2xx_eth.c                 0x00000000   Number         0  stm32f2xx_eth.o ABSOLUTE
    drivers\\stm32f2xx_it.c                  0x00000000   Number         0  stm32f2xx_it.o ABSOLUTE
    drivers\\usart.c                         0x00000000   Number         0  usart.o ABSOLUTE
    drivers\board.c                          0x00000000   Number         0  board.o ABSOLUTE
    drivers\ext_sram.c                       0x00000000   Number         0  ext_sram.o ABSOLUTE
    drivers\platform.c                       0x00000000   Number         0  platform.o ABSOLUTE
    drivers\spi_flash_w25qxx.c               0x00000000   Number         0  spi_flash_w25qxx.o ABSOLUTE
    drivers\stm32_flash.c                    0x00000000   Number         0  stm32_flash.o ABSOLUTE
    drivers\stm32f20x_40x_spi.c              0x00000000   Number         0  stm32f20x_40x_spi.o ABSOLUTE
    drivers\stm32f2_rtc.c                    0x00000000   Number         0  stm32f2_rtc.o ABSOLUTE
    drivers\stm32f2xx_eth.c                  0x00000000   Number         0  stm32f2xx_eth.o ABSOLUTE
    drivers\stm32f2xx_it.c                   0x00000000   Number         0  stm32f2xx_it.o ABSOLUTE
    drivers\usart.c                          0x00000000   Number         0  usart.o ABSOLUTE
    RESET                                    0x08040000   Section      388  startup_stm32f2xx.o(RESET)
    !!!main                                  0x08040184   Section        8  __main.o(!!!main)
    !!!scatter                               0x0804018c   Section       52  __scatter.o(!!!scatter)
    !!dczerorl2                              0x080401c0   Section       90  __dczerorl2.o(!!dczerorl2)
    !!handler_zi                             0x0804021c   Section       28  __scatter_zi.o(!!handler_zi)
    .ARM.Collect$$_printf_percent$$00000000  0x08040238   Section        0  _printf_percent.o(.ARM.Collect$$_printf_percent$$00000000)
    .ARM.Collect$$_printf_percent$$00000009  0x08040238   Section        6  _printf_d.o(.ARM.Collect$$_printf_percent$$00000009)
    .ARM.Collect$$_printf_percent$$0000000C  0x0804023e   Section        6  _printf_x.o(.ARM.Collect$$_printf_percent$$0000000C)
    .ARM.Collect$$_printf_percent$$00000014  0x08040244   Section        6  _printf_s.o(.ARM.Collect$$_printf_percent$$00000014)
    .ARM.Collect$$_printf_percent$$00000017  0x0804024a   Section        4  _printf_percent_end.o(.ARM.Collect$$_printf_percent$$00000017)
    .ARM.Collect$$libinit$$00000000          0x0804024e   Section        2  libinit.o(.ARM.Collect$$libinit$$00000000)
    .ARM.Collect$$libinit$$00000002          0x08040250   Section        0  libinit2.o(.ARM.Collect$$libinit$$00000002)
    .ARM.Collect$$libinit$$00000003          0x08040250   Section        8  libinit2.o(.ARM.Collect$$libinit$$00000003)
    .ARM.Collect$$libinit$$00000008          0x08040258   Section        0  libinit2.o(.ARM.Collect$$libinit$$00000008)
    .ARM.Collect$$libinit$$0000000A          0x08040258   Section        0  libinit2.o(.ARM.Collect$$libinit$$0000000A)
    .ARM.Collect$$libinit$$0000000C          0x08040258   Section        0  libinit2.o(.ARM.Collect$$libinit$$0000000C)
    .ARM.Collect$$libinit$$0000000D          0x08040258   Section        6  libinit2.o(.ARM.Collect$$libinit$$0000000D)
    .ARM.Collect$$libinit$$0000000F          0x0804025e   Section        0  libinit2.o(.ARM.Collect$$libinit$$0000000F)
    .ARM.Collect$$libinit$$00000010          0x0804025e   Section       12  libinit2.o(.ARM.Collect$$libinit$$00000010)
    .ARM.Collect$$libinit$$00000011          0x0804026a   Section        0  libinit2.o(.ARM.Collect$$libinit$$00000011)
    .ARM.Collect$$libinit$$00000013          0x0804026a   Section        0  libinit2.o(.ARM.Collect$$libinit$$00000013)
    .ARM.Collect$$libinit$$00000015          0x0804026a   Section        0  libinit2.o(.ARM.Collect$$libinit$$00000015)
    .ARM.Collect$$libinit$$00000017          0x0804026a   Section        0  libinit2.o(.ARM.Collect$$libinit$$00000017)
    .ARM.Collect$$libinit$$00000019          0x0804026a   Section        0  libinit2.o(.ARM.Collect$$libinit$$00000019)
    .ARM.Collect$$libinit$$0000001B          0x0804026a   Section        0  libinit2.o(.ARM.Collect$$libinit$$0000001B)
    .ARM.Collect$$libinit$$0000001D          0x0804026a   Section        0  libinit2.o(.ARM.Collect$$libinit$$0000001D)
    .ARM.Collect$$libinit$$0000001F          0x0804026a   Section        0  libinit2.o(.ARM.Collect$$libinit$$0000001F)
    .ARM.Collect$$libinit$$00000021          0x0804026a   Section        0  libinit2.o(.ARM.Collect$$libinit$$00000021)
    .ARM.Collect$$libinit$$00000023          0x0804026a   Section        0  libinit2.o(.ARM.Collect$$libinit$$00000023)
    .ARM.Collect$$libinit$$0000002A          0x0804026a   Section        0  libinit2.o(.ARM.Collect$$libinit$$0000002A)
    .ARM.Collect$$libinit$$0000002C          0x0804026a   Section        0  libinit2.o(.ARM.Collect$$libinit$$0000002C)
    .ARM.Collect$$libinit$$0000002E          0x0804026a   Section        0  libinit2.o(.ARM.Collect$$libinit$$0000002E)
    .ARM.Collect$$libinit$$00000030          0x0804026a   Section        0  libinit2.o(.ARM.Collect$$libinit$$00000030)
    .ARM.Collect$$libinit$$00000031          0x0804026a   Section        2  libinit2.o(.ARM.Collect$$libinit$$00000031)
    .ARM.Collect$$libshutdown$$00000000      0x0804026c   Section        2  libshutdown.o(.ARM.Collect$$libshutdown$$00000000)
    .ARM.Collect$$libshutdown$$00000003      0x0804026e   Section        0  libshutdown2.o(.ARM.Collect$$libshutdown$$00000003)
    .ARM.Collect$$libshutdown$$00000006      0x0804026e   Section        0  libshutdown2.o(.ARM.Collect$$libshutdown$$00000006)
    .ARM.Collect$$libshutdown$$00000009      0x0804026e   Section        0  libshutdown2.o(.ARM.Collect$$libshutdown$$00000009)
    .ARM.Collect$$libshutdown$$0000000B      0x0804026e   Section        0  libshutdown2.o(.ARM.Collect$$libshutdown$$0000000B)
    .ARM.Collect$$libshutdown$$0000000E      0x0804026e   Section        0  libshutdown2.o(.ARM.Collect$$libshutdown$$0000000E)
    .ARM.Collect$$libshutdown$$0000000F      0x0804026e   Section        2  libshutdown2.o(.ARM.Collect$$libshutdown$$0000000F)
    .ARM.Collect$$rtentry$$00000000          0x08040270   Section        0  rtentry.o(.ARM.Collect$$rtentry$$00000000)
    .ARM.Collect$$rtentry$$00000002          0x08040270   Section        0  rtentry2.o(.ARM.Collect$$rtentry$$00000002)
    .ARM.Collect$$rtentry$$00000004          0x08040270   Section        6  rtentry4.o(.ARM.Collect$$rtentry$$00000004)
    .ARM.Collect$$rtentry$$00000009          0x08040276   Section        0  rtentry2.o(.ARM.Collect$$rtentry$$00000009)
    .ARM.Collect$$rtentry$$0000000A          0x08040276   Section        4  rtentry2.o(.ARM.Collect$$rtentry$$0000000A)
    .ARM.Collect$$rtentry$$0000000C          0x0804027a   Section        0  rtentry2.o(.ARM.Collect$$rtentry$$0000000C)
    .ARM.Collect$$rtentry$$0000000D          0x0804027a   Section        8  rtentry2.o(.ARM.Collect$$rtentry$$0000000D)
    .ARM.Collect$$rtexit$$00000000           0x08040282   Section        2  rtexit.o(.ARM.Collect$$rtexit$$00000000)
    .ARM.Collect$$rtexit$$00000002           0x08040284   Section        0  rtexit2.o(.ARM.Collect$$rtexit$$00000002)
    .ARM.Collect$$rtexit$$00000003           0x08040284   Section        4  rtexit2.o(.ARM.Collect$$rtexit$$00000003)
    .ARM.Collect$$rtexit$$00000004           0x08040288   Section        6  rtexit2.o(.ARM.Collect$$rtexit$$00000004)
    .emb_text                                0x08040290   Section        0  maybetermalloc1.o(.emb_text)
    .text                                    0x08040290   Section        0  3g_watchdog.o(.text)
    _hw_watchdog_feeder                      0x08040291   Thumb Code     4  3g_watchdog.o(.text)
    _iwdg_feeding_timer_handler              0x08040329   Thumb Code    62  3g_watchdog.o(.text)
    _feed_hw_watchdog                        0x08040391   Thumb Code     8  3g_watchdog.o(.text)
    _config_iwdg                             0x08040399   Thumb Code    78  3g_watchdog.o(.text)
    .text                                    0x08040438   Section        0  application.o(.text)
    .text                                    0x080405d4   Section        0  bootcfg.o(.text)
    bootsh_rx_ind                            0x080405d5   Thumb Code    44  bootcfg.o(.text)
    _getStrOfIp                              0x080412ab   Thumb Code   128  bootcfg.o(.text)
    .text                                    0x0804136c   Section        0  bsmac_parser.o(.text)
    bsmac_uart_recv                          0x080419f1   Thumb Code   290  bsmac_parser.o(.text)
    _bsmac_analyser_callback                 0x08041b77   Thumb Code   186  bsmac_parser.o(.text)
    bsmac_rx2_ind                            0x08041c31   Thumb Code    12  bsmac_parser.o(.text)
    bsmac_rx1_ind                            0x08041c3d   Thumb Code    12  bsmac_parser.o(.text)
    bsmac_rx0_ind                            0x08041c49   Thumb Code    12  bsmac_parser.o(.text)
    bsmac_live_poll                          0x080420ed   Thumb Code    72  bsmac_parser.o(.text)
    .text                                    0x08042248   Section        0  led_indicator.o(.text)
    _chang_sys_lamp_state                    0x080422cb   Thumb Code     2  led_indicator.o(.text)
    .text                                    0x0804231c   Section        0  location_data.o(.text)
    .text                                    0x080424f0   Section        0  mbus_app.o(.text)
    _mbus_write_reported_msg_queue           0x080424f1   Thumb Code    76  mbus_app.o(.text)
    _mbus_report_sensor_link                 0x0804253d   Thumb Code   110  mbus_app.o(.text)
    _mbus_report_net_node_link               0x080425ab   Thumb Code    32  mbus_app.o(.text)
    _mbus_report_sensor_config               0x080425cb   Thumb Code   156  mbus_app.o(.text)
    _mbus_report_master_version              0x08042667   Thumb Code   126  mbus_app.o(.text)
    _mbus_report_slave_version               0x080426e5   Thumb Code    92  mbus_app.o(.text)
    _mbus_data_handler                       0x08042741   Thumb Code   230  mbus_app.o(.text)
    _mbus_send_query_msg                     0x08042827   Thumb Code   720  mbus_app.o(.text)
    _mbus_rec_respond_msg                    0x08042af7   Thumb Code   266  mbus_app.o(.text)
    _mbus_individual_comm                    0x08042c01   Thumb Code   284  mbus_app.o(.text)
    _mbus_query_slv_state                    0x08042d1d   Thumb Code    36  mbus_app.o(.text)
    _mbus_query_slv_data                     0x08042d41   Thumb Code    66  mbus_app.o(.text)
    _mbus_down_cmd                           0x08042d83   Thumb Code    72  mbus_app.o(.text)
    _mbus_query_slv_version                  0x08042dcb   Thumb Code    54  mbus_app.o(.text)
    _mbus_handle_3g_data                     0x08042e01   Thumb Code   644  mbus_app.o(.text)
    _mbus_scan_slv_device                    0x08043085   Thumb Code   182  mbus_app.o(.text)
    _mbus_rx_ind                             0x0804313b   Thumb Code    12  mbus_app.o(.text)
    _mbus_report_card_link                   0x08043333   Thumb Code   112  mbus_app.o(.text)
    _mbus_report_card_data                   0x080433a3   Thumb Code   132  mbus_app.o(.text)
    _mbus_report_sensor_data                 0x08043427   Thumb Code   414  mbus_app.o(.text)
    _mbus_report_power_sensor_data           0x080435c5   Thumb Code    90  mbus_app.o(.text)
    _mbus_send_one_frame_data                0x0804361f   Thumb Code    82  mbus_app.o(.text)
    _mbus_rec_one_frame_data                 0x08043671   Thumb Code   130  mbus_app.o(.text)
    _mbus_down_card_reader_retreat           0x080436f3   Thumb Code    86  mbus_app.o(.text)
    _mbus_handle_net_msg                     0x08043749   Thumb Code   192  mbus_app.o(.text)
    _mbus_print_slv_id_state                 0x08043809   Thumb Code    88  mbus_app.o(.text)
    _mbus_set_sensor_config                  0x08043861   Thumb Code   104  mbus_app.o(.text)
    _mbus_handle_version_query               0x080438c9   Thumb Code    92  mbus_app.o(.text)
    .text                                    0x08043a64   Section        0  msg_center.o(.text)
    .text                                    0x08043b64   Section        0  net_app.o(.text)
    _take_socket_mutex                       0x08043b65   Thumb Code    48  net_app.o(.text)
    _release_socket_mutex                    0x08043b95   Thumb Code    48  net_app.o(.text)
    _config_ipaddr                           0x08043c7f   Thumb Code   130  net_app.o(.text)
    _close_socket                            0x08043d01   Thumb Code    44  net_app.o(.text)
    _connect_server                          0x08043d2d   Thumb Code   126  net_app.o(.text)
    _net_recv_data                           0x08043dab   Thumb Code   190  net_app.o(.text)
    _net_recv_work_loop                      0x08043e69   Thumb Code   860  net_app.o(.text)
    _net_send_data                           0x080441d7   Thumb Code   144  net_app.o(.text)
    _net_send_work_loop                      0x08044267   Thumb Code   314  net_app.o(.text)
    _net_sendto_mbus                         0x0804465b   Thumb Code    86  net_app.o(.text)
    _net_analyser_callback                   0x080446b1   Thumb Code    92  net_app.o(.text)
    _net_close_server                        0x0804470d   Thumb Code    32  net_app.o(.text)
    _net_close_client_connect                0x0804472d   Thumb Code    32  net_app.o(.text)
    _net_init_server                         0x0804474d   Thumb Code   170  net_app.o(.text)
    _printf_station_cfg                      0x080447f7   Thumb Code   106  net_app.o(.text)
    _net_report_station_config               0x08044861   Thumb Code    78  net_app.o(.text)
    _net_report_station_sw_version           0x080448af   Thumb Code   152  net_app.o(.text)
    _net_server_msg_handler                  0x08044947   Thumb Code   692  net_app.o(.text)
    _net_server_recv_data                    0x08044bfb   Thumb Code   122  net_app.o(.text)
    _net_server_work                         0x08044c75   Thumb Code   272  net_app.o(.text)
    _net_server_work_thread                  0x08044d85   Thumb Code    12  net_app.o(.text)
    _dhcp_work                               0x08044e7d   Thumb Code    96  net_app.o(.text)
    _create_socket                           0x08044edd   Thumb Code    56  net_app.o(.text)
    _net_sendto_analyser                     0x08044f15   Thumb Code    86  net_app.o(.text)
    _net_sendto_jennic                       0x08044f6b   Thumb Code    84  net_app.o(.text)
    .text                                    0x080451a8   Section        0  startup.o(.text)
    .text                                    0x080452c8   Section        0  system_stm32f2xx.o(.text)
    SetSysClock                              0x08045371   Thumb Code   140  system_stm32f2xx.o(.text)
    .text                                    0x08045424   Section        0  upgrade_flag.o(.text)
    .text                                    0x08045628   Section        0  board.o(.text)
    .text                                    0x08045970   Section        0  platform.o(.text)
    rt_hw_spi2_init                          0x08045971   Thumb Code   180  platform.o(.text)
    rt_hw_spi1_init                          0x08045a25   Thumb Code   180  platform.o(.text)
    .text                                    0x08045b48   Section        0  usart.o(.text)
    stm32_configure                          0x08045b49   Thumb Code   192  usart.o(.text)
    stm32_control                            0x08045c09   Thumb Code    96  usart.o(.text)
    stm32_putc                               0x08045c69   Thumb Code    52  usart.o(.text)
    stm32_getc                               0x08045c9d   Thumb Code    52  usart.o(.text)
    GPIO_Configuration                       0x08045e23   Thumb Code   238  usart.o(.text)
    RCC_Configuration                        0x080460a9   Thumb Code   102  usart.o(.text)
    NVIC_Configuration                       0x0804610f   Thumb Code    32  usart.o(.text)
    .text                                    0x0804616c   Section        0  stm32f2xx_it.o(.text)
    .text                                    0x080461dc   Section        0  stm32_flash.o(.text)
    .text                                    0x08046384   Section        0  stm32f2xx_eth.o(.text)
    rt_stm32_eth_init                        0x08047d91   Thumb Code   208  stm32f2xx_eth.o(.text)
    rt_stm32_eth_open                        0x08047e61   Thumb Code     4  stm32f2xx_eth.o(.text)
    rt_stm32_eth_close                       0x08047e65   Thumb Code     4  stm32f2xx_eth.o(.text)
    rt_stm32_eth_read                        0x08047e69   Thumb Code    14  stm32f2xx_eth.o(.text)
    rt_stm32_eth_write                       0x08047e77   Thumb Code    14  stm32f2xx_eth.o(.text)
    rt_stm32_eth_control                     0x08047e85   Thumb Code    28  stm32f2xx_eth.o(.text)
    GPIO_Configuration                       0x08047fcd   Thumb Code   206  stm32f2xx_eth.o(.text)
    phy_monitor_thread_entry                 0x0804809b   Thumb Code   210  stm32f2xx_eth.o(.text)
    .text                                    0x080482ec   Section        0  stm32f20x_40x_spi.o(.text)
    configure                                0x080482ed   Thumb Code   254  stm32f20x_40x_spi.o(.text)
    xfer                                     0x080483eb   Thumb Code   206  stm32f20x_40x_spi.o(.text)
    .text                                    0x0804851c   Section        0  spi_flash_w25qxx.o(.text)
    w25qxx_flash_init                        0x0804851d   Thumb Code     4  spi_flash_w25qxx.o(.text)
    w25qxx_flash_open                        0x08048521   Thumb Code    68  spi_flash_w25qxx.o(.text)
    w25qxx_flash_close                       0x08048565   Thumb Code     4  spi_flash_w25qxx.o(.text)
    w25qxx_flash_control                     0x08048569   Thumb Code    64  spi_flash_w25qxx.o(.text)
    w25qxx_flash_read                        0x080485a9   Thumb Code    94  spi_flash_w25qxx.o(.text)
    w25qxx_flash_write                       0x08048607   Thumb Code    64  spi_flash_w25qxx.o(.text)
    rt_spi_send                              0x08048791   Thumb Code     8  spi_flash_w25qxx.o(.text)
    flash_lock                               0x08048799   Thumb Code    10  spi_flash_w25qxx.o(.text)
    w25qxx_wait_busy                         0x080487a3   Thumb Code    36  spi_flash_w25qxx.o(.text)
    w25qxx_sector_write                      0x080487c7   Thumb Code   146  spi_flash_w25qxx.o(.text)
    w25qxx_page_write                        0x08048859   Thumb Code   106  spi_flash_w25qxx.o(.text)
    .text                                    0x08048a94   Section        0  stm32f2_rtc.o(.text)
    rt_rtc_open                              0x08048a95   Thumb Code     4  stm32f2_rtc.o(.text)
    rt_rtc_read                              0x08048a99   Thumb Code     4  stm32f2_rtc.o(.text)
    rt_rtc_control                           0x08048a9d   Thumb Code   202  stm32f2_rtc.o(.text)
    RTC_Configuration                        0x08048b67   Thumb Code   322  stm32f2_rtc.o(.text)
    .text                                    0x08048e34   Section        0  misc.o(.text)
    .text                                    0x08048fe0   Section        0  stm32f2xx_exti.o(.text)
    .text                                    0x08049258   Section        0  stm32f2xx_flash.o(.text)
    .text                                    0x08049818   Section        0  stm32f2xx_gpio.o(.text)
    .text                                    0x08049fec   Section        0  stm32f2xx_iwdg.o(.text)
    .text                                    0x0804a08c   Section        0  stm32f2xx_pwr.o(.text)
    .text                                    0x0804a230   Section        0  stm32f2xx_rcc.o(.text)
    .text                                    0x0804acf8   Section        0  stm32f2xx_rtc.o(.text)
    RTC_ByteToBcd2                           0x0804bc2d   Thumb Code    24  stm32f2xx_rtc.o(.text)
    RTC_Bcd2ToByte                           0x0804bc45   Thumb Code    18  stm32f2xx_rtc.o(.text)
    .text                                    0x0804bc64   Section        0  stm32f2xx_spi.o(.text)
    .text                                    0x0804c4a4   Section        0  stm32f2xx_syscfg.o(.text)
    .text                                    0x0804c5c4   Section        0  stm32f2xx_usart.o(.text)
    .text                                    0x0804d240   Section       64  startup_stm32f2xx.o(.text)
    .text                                    0x0804d280   Section        0  crc.o(.text)
    .text                                    0x0804d2b0   Section        0  clock.o(.text)
    .text                                    0x0804d310   Section        0  device.o(.text)
    .text                                    0x0804d690   Section        0  idle.o(.text)
    rt_thread_idle_entry                     0x0804d731   Thumb Code    14  idle.o(.text)
    rt_list_isempty                          0x0804d767   Thumb Code    14  idle.o(.text)
    .text                                    0x0804d7d8   Section        0  ipc.o(.text)
    rt_ipc_list_suspend                      0x0804d7d9   Thumb Code    80  ipc.o(.text)
    rt_ipc_list_resume_all                   0x0804d829   Thumb Code    46  ipc.o(.text)
    rt_list_insert_before                    0x0804ed3d   Thumb Code    14  ipc.o(.text)
    rt_list_isempty                          0x0804ed4b   Thumb Code    14  ipc.o(.text)
    rt_ipc_list_resume                       0x0804ed59   Thumb Code    14  ipc.o(.text)
    .text                                    0x0804ed88   Section        0  irq.o(.text)
    .text                                    0x0804edc0   Section        0  kservice.o(.text)
    print_number                             0x0804efd1   Thumb Code   294  kservice.o(.text)
    vsnprintf                                0x0804f0f7   Thumb Code   606  kservice.o(.text)
    skip_atoi                                0x0804f439   Thumb Code    40  kservice.o(.text)
    .text                                    0x0804f4f8   Section        0  mem.o(.text)
    plug_holes                               0x0804f505   Thumb Code   174  mem.o(.text)
    .text                                    0x0804fc5c   Section        0  object.o(.text)
    rt_list_insert_after                     0x0804fe99   Thumb Code    14  object.o(.text)
    rt_list_remove                           0x0804fea7   Thumb Code    18  object.o(.text)
    .text                                    0x0804ff4c   Section        0  scheduler.o(.text)
    _rt_scheduler_stack_check                0x0805014f   Thumb Code    84  scheduler.o(.text)
    .text                                    0x08050240   Section        0  thread.o(.text)
    rt_thread_exit                           0x08050241   Thumb Code    86  thread.o(.text)
    _rt_thread_init                          0x080502f9   Thumb Code   138  thread.o(.text)
    rt_list_insert_after                     0x0805084b   Thumb Code    14  thread.o(.text)
    rt_list_remove                           0x08050859   Thumb Code    18  thread.o(.text)
    .text                                    0x08050878   Section        0  timer.o(.text)
    rt_list_insert_before                    0x08050b65   Thumb Code    14  timer.o(.text)
    rt_list_remove                           0x08050b73   Thumb Code    18  timer.o(.text)
    rt_list_isempty                          0x08050b85   Thumb Code    14  timer.o(.text)
    _rt_timer_init                           0x08050b93   Thumb Code    28  timer.o(.text)
    .text                                    0x08050c18   Section        0  cpuport.o(.text)
    usage_fault_track                        0x08050c53   Thumb Code   100  cpuport.o(.text)
    bus_fault_track                          0x08050cb7   Thumb Code   112  cpuport.o(.text)
    mem_manage_fault_track                   0x08050d27   Thumb Code   100  cpuport.o(.text)
    hard_fault_track                         0x08050e17   Thumb Code    76  cpuport.o(.text)
    .text                                    0x080510b0   Section      196  context_rvds.o(.text)
    .text                                    0x08051174   Section        0  dfs.o(.text)
    .text                                    0x080514e4   Section        0  dfs_fs.o(.text)
    .text                                    0x08051968   Section        0  dfs_file.o(.text)
    .text                                    0x08051cb0   Section        0  dfs_posix.o(.text)
    .text                                    0x0805215c   Section        0  dfs_elm.o(.text)
    elm_result_to_dfs                        0x0805215d   Thumb Code    66  dfs_elm.o(.text)
    .text                                    0x08052920   Section        0  ff.o(.text)
    move_window                              0x08052921   Thumb Code   106  ff.o(.text)
    sync                                     0x0805298b   Thumb Code   182  ff.o(.text)
    remove_chain                             0x08052c5f   Thumb Code    96  ff.o(.text)
    create_chain                             0x08052cbf   Thumb Code   148  ff.o(.text)
    clmt_clust                               0x08052d53   Thumb Code    40  ff.o(.text)
    dir_sdi                                  0x08052d7b   Thumb Code   158  ff.o(.text)
    dir_next                                 0x08052e19   Thumb Code   260  ff.o(.text)
    dir_read                                 0x08052f1d   Thumb Code    68  ff.o(.text)
    dir_register                             0x08052f61   Thumb Code    92  ff.o(.text)
    dir_remove                               0x08052fbd   Thumb Code    40  ff.o(.text)
    create_name                              0x08052fe5   Thumb Code   270  ff.o(.text)
    get_fileinfo                             0x080530f3   Thumb Code    96  ff.o(.text)
    follow_path                              0x08053153   Thumb Code   172  ff.o(.text)
    check_fs                                 0x080531ff   Thumb Code    86  ff.o(.text)
    chk_mounted                              0x08053255   Thumb Code   590  ff.o(.text)
    validate                                 0x080534a3   Thumb Code    46  ff.o(.text)
    mem_cpy                                  0x08054859   Thumb Code    16  ff.o(.text)
    mem_set                                  0x08054869   Thumb Code    14  ff.o(.text)
    lock_fs                                  0x08054877   Thumb Code     6  ff.o(.text)
    unlock_fs                                0x0805487d   Thumb Code    24  ff.o(.text)
    .text                                    0x08054894   Section        0  rtc.o(.text)
    .text                                    0x08054980   Section        0  serial.o(.text)
    rt_serial_init                           0x08054981   Thumb Code   118  serial.o(.text)
    rt_serial_open                           0x080549f7   Thumb Code    70  serial.o(.text)
    rt_serial_close                          0x08054a3d   Thumb Code    70  serial.o(.text)
    rt_serial_read                           0x08054a83   Thumb Code   148  serial.o(.text)
    rt_serial_write                          0x08054b17   Thumb Code   314  serial.o(.text)
    rt_serial_control                        0x08054c51   Thumb Code    84  serial.o(.text)
    serial_ringbuffer_init                   0x08054e89   Thumb Code    26  serial.o(.text)
    .text                                    0x08054ea4   Section        0  spi_core.o(.text)
    .text                                    0x080554e0   Section        0  spi_dev.o(.text)
    _spi_bus_device_init                     0x080554e1   Thumb Code    34  spi_dev.o(.text)
    _spi_bus_device_read                     0x08055503   Thumb Code    88  spi_dev.o(.text)
    _spi_bus_device_write                    0x0805555b   Thumb Code    88  spi_dev.o(.text)
    _spi_bus_device_control                  0x080555b3   Thumb Code    36  spi_dev.o(.text)
    _spidev_device_init                      0x08055623   Thumb Code    36  spi_dev.o(.text)
    _spidev_device_read                      0x08055647   Thumb Code    88  spi_dev.o(.text)
    _spidev_device_write                     0x0805569f   Thumb Code    88  spi_dev.o(.text)
    _spidev_device_control                   0x080556f7   Thumb Code    36  spi_dev.o(.text)
    .text                                    0x08055810   Section        0  dataqueue.o(.text)
    rt_list_insert_before                    0x08055c7d   Thumb Code    14  dataqueue.o(.text)
    rt_list_isempty                          0x08055c8b   Thumb Code    14  dataqueue.o(.text)
    .text                                    0x08055c98   Section        0  components.o(.text)
    .text                                    0x08055ccc   Section        0  api_lib.o(.text)
    netconn_recv_data                        0x08055fa9   Thumb Code   908  api_lib.o(.text)
    netconn_close_shutdown                   0x08056527   Thumb Code    74  api_lib.o(.text)
    .text                                    0x080566e0   Section        0  api_msg.o(.text)
    recv_raw                                 0x080566e1   Thumb Code   118  api_msg.o(.text)
    recv_udp                                 0x08056757   Thumb Code   166  api_msg.o(.text)
    recv_tcp                                 0x080567fd   Thumb Code   162  api_msg.o(.text)
    err_tcp                                  0x0805689f   Thumb Code   218  api_msg.o(.text)
    do_writemore                             0x08056979   Thumb Code   868  api_msg.o(.text)
    sent_tcp                                 0x08056cdd   Thumb Code   106  api_msg.o(.text)
    do_close_internal                        0x08056d47   Thumb Code   376  api_msg.o(.text)
    poll_tcp                                 0x08056ebf   Thumb Code   106  api_msg.o(.text)
    setup_tcp                                0x08056f29   Thumb Code    50  api_msg.o(.text)
    accept_function                          0x0805705f   Thumb Code   110  api_msg.o(.text)
    pcb_new                                  0x080570cd   Thumb Code   556  api_msg.o(.text)
    netconn_drain                            0x08057319   Thumb Code   178  api_msg.o(.text)
    do_connected                             0x08057501   Thumb Code   164  api_msg.o(.text)
    do_dns_found                             0x08057a8b   Thumb Code    66  api_msg.o(.text)
    .text                                    0x08057b48   Section        0  netbuf.o(.text)
    .text                                    0x08057e58   Section        0  netifapi.o(.text)
    .text                                    0x08057f24   Section        0  sockets.o(.text)
    get_socket                               0x08057f27   Thumb Code    34  sockets.o(.text)
    alloc_socket                             0x08057f49   Thumb Code    94  sockets.o(.text)
    event_callback                           0x08057fa7   Thumb Code   304  sockets.o(.text)
    lwip_selscan                             0x080589b3   Thumb Code   272  sockets.o(.text)
    lwip_getaddrname                         0x08058e93   Thumb Code   114  sockets.o(.text)
    lwip_getsockopt_internal                 0x08058f0d   Thumb Code   328  sockets.o(.text)
    lwip_setsockopt_internal                 0x080591bf   Thumb Code   276  sockets.o(.text)
    tryget_socket                            0x08059453   Thumb Code    26  sockets.o(.text)
    .text                                    0x08059478   Section        0  tcpip.o(.text)
    tcpip_thread                             0x08059479   Thumb Code   126  tcpip.o(.text)
    pbuf_free_int                            0x080596db   Thumb Code     4  tcpip.o(.text)
    .text                                    0x08059784   Section        0  sys_arch.o(.text)
    netif_device_init                        0x08059785   Thumb Code    36  sys_arch.o(.text)
    tcpip_init_done_callback                 0x080597dd   Thumb Code   140  sys_arch.o(.text)
    .text                                    0x08059ea8   Section        0  def.o(.text)
    .text                                    0x08059eb8   Section        0  dhcp.o(.text)
    dhcp_delete_msg                          0x08059eb9   Thumb Code    84  dhcp.o(.text)
    dhcp_option_trailer                      0x08059f0d   Thumb Code   138  dhcp.o(.text)
    dhcp_option_byte                         0x08059f97   Thumb Code    44  dhcp.o(.text)
    dhcp_option                              0x08059fc3   Thumb Code    64  dhcp.o(.text)
    dhcp_option_short                        0x0805a003   Thumb Code    64  dhcp.o(.text)
    dhcp_create_msg                          0x0805a043   Thumb Code   382  dhcp.o(.text)
    dhcp_discover                            0x0805a1c1   Thumb Code   778  dhcp.o(.text)
    dhcp_check                               0x0805a4cb   Thumb Code    38  dhcp.o(.text)
    dhcp_option_long                         0x0805a4f1   Thumb Code    96  dhcp.o(.text)
    dhcp_select                              0x0805a551   Thumb Code   228  dhcp.o(.text)
    dhcp_rebind                              0x0805a6b7   Thumb Code   128  dhcp.o(.text)
    dhcp_reboot                              0x0805a791   Thumb Code   154  dhcp.o(.text)
    dhcp_bind                                0x0805a8c9   Thumb Code   294  dhcp.o(.text)
    dhcp_handle_ack                          0x0805aa1d   Thumb Code   126  dhcp.o(.text)
    dhcp_parse_reply                         0x0805ab6d   Thumb Code  1074  dhcp.o(.text)
    dhcp_recv                                0x0805af9f   Thumb Code   290  dhcp.o(.text)
    dhcp_set_state                           0x0805b317   Thumb Code    16  dhcp.o(.text)
    dhcp_timeout                             0x0805b327   Thumb Code   136  dhcp.o(.text)
    dhcp_decline                             0x0805b3af   Thumb Code   104  dhcp.o(.text)
    .text                                    0x0805b41c   Section        0  dns.o(.text)
    dns_recv                                 0x0805b43d   Thumb Code   350  dns.o(.text)
    dns_send                                 0x0805b5ef   Thumb Code   256  dns.o(.text)
    dns_check_entry                          0x0805b6ef   Thumb Code   216  dns.o(.text)
    dns_parse_name                           0x0805b961   Thumb Code    34  dns.o(.text)
    dns_enqueue                              0x0805b983   Thumb Code   168  dns.o(.text)
    .text                                    0x0805ba34   Section        0  init.o(.text)
    .text                                    0x0805ba50   Section        0  netif.o(.text)
    .text                                    0x0805bc9c   Section        0  pbuf.o(.text)
    pbuf_free_ooseq                          0x0805bc9d   Thumb Code    42  pbuf.o(.text)
    pbuf_pool_is_empty                       0x0805bcc7   Thumb Code    54  pbuf.o(.text)
    .text                                    0x0805c954   Section        0  raw.o(.text)
    .text                                    0x0805cb34   Section        0  tcp.o(.text)
    tcp_close_shutdown                       0x0805cf27   Thumb Code   768  tcp.o(.text)
    tcp_new_port                             0x0805d47b   Thumb Code    62  tcp.o(.text)
    tcp_accept_null                          0x0805d5fd   Thumb Code     6  tcp.o(.text)
    .text                                    0x0805d948   Section        0  tcp_in.o(.text)
    tcp_oos_insert_segment                   0x0805d949   Thumb Code   114  tcp_in.o(.text)
    tcp_receive                              0x0805d9bb   Thumb Code  2342  tcp_in.o(.text)
    tcp_parseopt                             0x0805e2e1   Thumb Code   324  tcp_in.o(.text)
    tcp_process                              0x0805e425   Thumb Code   874  tcp_in.o(.text)
    tcp_listen_input                         0x0805e78f   Thumb Code   304  tcp_in.o(.text)
    tcp_timewait_input                       0x0805ec73   Thumb Code   418  tcp_in.o(.text)
    .text                                    0x0805ee18   Section        0  tcp_out.o(.text)
    tcp_output_alloc_header                  0x0805ee19   Thumb Code   130  tcp_out.o(.text)
    tcp_create_segment                       0x0805ee9b   Thumb Code   156  tcp_out.o(.text)
    tcp_pbuf_prealloc                        0x0805f09f   Thumb Code   104  tcp_out.o(.text)
    tcp_write_checks                         0x0805f107   Thumb Code   118  tcp_out.o(.text)
    tcp_output_segment                       0x0805f725   Thumb Code   540  tcp_out.o(.text)
    .text                                    0x0805fd5c   Section        0  timers.o(.text)
    tcpip_tcp_timer                          0x0805fdc9   Thumb Code    38  timers.o(.text)
    arp_timer                                0x0805fe11   Thumb Code    20  timers.o(.text)
    dhcp_timer_coarse                        0x0805fe25   Thumb Code    20  timers.o(.text)
    dhcp_timer_fine                          0x0805fe39   Thumb Code    20  timers.o(.text)
    dns_timer                                0x0805fe4d   Thumb Code    20  timers.o(.text)
    .text                                    0x0805ffd4   Section        0  udp.o(.text)
    .text                                    0x08060434   Section        0  icmp.o(.text)
    icmp_send_response                       0x08060599   Thumb Code   122  icmp.o(.text)
    .text                                    0x08060770   Section        0  inet_chksum.o(.text)
    lwip_standard_chksum                     0x08060771   Thumb Code    86  inet_chksum.o(.text)
    .text                                    0x080609a0   Section        0  ip.o(.text)
    .text                                    0x08060cc8   Section        0  ip_addr.o(.text)
    .text                                    0x08060f00   Section        0  etharp.o(.text)
    free_etharp_q                            0x08060f01   Thumb Code    82  etharp.o(.text)
    free_entry                               0x08060f53   Thumb Code    24  etharp.o(.text)
    find_entry                               0x08060f9d   Thumb Code   326  etharp.o(.text)
    etharp_send_ip                           0x080610e3   Thumb Code    72  etharp.o(.text)
    update_arp_entry                         0x0806112b   Thumb Code   144  etharp.o(.text)
    etharp_arp_input                         0x08061201   Thumb Code   612  etharp.o(.text)
    etharp_raw                               0x08061465   Thumb Code   212  etharp.o(.text)
    .text                                    0x0806186c   Section        0  ethernetif.o(.text)
    ethernetif_linkoutput                    0x0806186d   Thumb Code    34  ethernetif.o(.text)
    eth_netif_device_init                    0x0806188f   Thumb Code    74  ethernetif.o(.text)
    eth_tx_thread_entry                      0x080619dd   Thumb Code   124  ethernetif.o(.text)
    eth_rx_thread_entry                      0x08061a59   Thumb Code   116  ethernetif.o(.text)
    .text                                    0x08061d38   Section       16  rt_ctype_table.o(.text)
    .text                                    0x08061d48   Section        0  h1_alloc.o(.text)
    .text                                    0x08061da6   Section        0  h1_free.o(.text)
    .text                                    0x08061df4   Section        0  noretval__2snprintf.o(.text)
    .text                                    0x08061e28   Section        0  _printf_pad.o(.text)
    .text                                    0x08061e7a   Section        0  _printf_str.o(.text)
    .text                                    0x08061ecc   Section        0  _printf_dec.o(.text)
    .text                                    0x08061f44   Section        0  _printf_hex_int.o(.text)
    .text                                    0x08061fa0   Section        0  __printf_flags_wp.o(.text)
    .text                                    0x080620dc   Section        0  atoi.o(.text)
    .text                                    0x080620f6   Section        0  strchr.o(.text)
    .text                                    0x0806210a   Section        0  strncasecmp.o(.text)
    .text                                    0x0806213c   Section        0  strcasecmp.o(.text)
    .text                                    0x08062166   Section        0  strlen.o(.text)
    .text                                    0x080621a4   Section        0  strncmp.o(.text)
    .text                                    0x0806223a   Section      138  rt_memcpy_v6.o(.text)
    .text                                    0x080622c4   Section      100  rt_memcpy_w.o(.text)
    .text                                    0x08062328   Section       68  rt_memclr.o(.text)
    .text                                    0x0806236c   Section       78  rt_memclr_w.o(.text)
    .text                                    0x080623ba   Section       86  strncpy.o(.text)
    .text                                    0x08062410   Section      128  strcmpv7m.o(.text)
    .text                                    0x08062490   Section        0  localtime.o(.text)
    .text                                    0x0806249c   Section        0  mktime.o(.text)
    _tm_carry                                0x0806249d   Thumb Code    54  mktime.o(.text)
    .text                                    0x08062640   Section        0  localtime_internal.o(.text)
    .text                                    0x080626e4   Section        0  heapauxi.o(.text)
    .text                                    0x080626ec   Section        8  rt_heap_descriptor_intlibspace.o(.text)
    .text                                    0x080626f4   Section        8  rt_locale_intlibspace.o(.text)
    .text                                    0x080626fc   Section        8  rt_errno_addr_intlibspace.o(.text)
    .text                                    0x08062704   Section        0  hguard.o(.text)
    .text                                    0x08062708   Section        0  init_alloc.o(.text)
    .text                                    0x08062792   Section        0  h1_init.o(.text)
    .text                                    0x080627a0   Section        0  tolower.o(.text)
    .text                                    0x080627ba   Section        0  _printf_intcommon.o(.text)
    .text                                    0x08062874   Section        0  _printf_char_common.o(.text)
    _printf_input_char                       0x08062875   Thumb Code    10  _printf_char_common.o(.text)
    .text                                    0x080628a4   Section        0  _sputc.o(.text)
    .text                                    0x080628ae   Section        0  _snputc.o(.text)
    .text                                    0x080628be   Section        0  _printf_char.o(.text)
    .text                                    0x080628ea   Section        0  strtol.o(.text)
    .text                                    0x0806295c   Section        8  libspace.o(.text)
    .text                                    0x08062964   Section        0  h1_extend.o(.text)
    .text                                    0x08062998   Section        0  _strtoul.o(.text)
    .text                                    0x08062a36   Section        0  defsig_rtmem_outer.o(.text)
    .text                                    0x08062a44   Section        2  use_no_semi.o(.text)
    .text                                    0x08062a46   Section       74  sys_stackheap_outer.o(.text)
    .text                                    0x08062a46   Section        0  indicate_semi.o(.text)
    .text                                    0x08062a90   Section        0  _chval.o(.text)
    .text                                    0x08062aac   Section        0  exit.o(.text)
    .text                                    0x08062ab8   Section        0  defsig_exit.o(.text)
    .text                                    0x08062ac4   Section        0  defsig_rtmem_inner.o(.text)
    .text                                    0x08062b14   Section        0  sys_exit.o(.text)
    .text                                    0x08062b20   Section        0  defsig_general.o(.text)
    .text                                    0x08062b52   Section        0  sys_wrch.o(.text)
    i._is_digit                              0x08062b60   Section        0  __printf_wp.o(i._is_digit)
    locale$$code                             0x08062b70   Section       44  lc_ctype_c.o(locale$$code)
    .constdata                               0x08062b9c   Section      188  bootcfg.o(.constdata)
    __FUNCTION__                             0x08062b9c   Data          14  bootcfg.o(.constdata)
    __FUNCTION__                             0x08062baa   Data          18  bootcfg.o(.constdata)
    __func__                                 0x08062bbc   Data          19  bootcfg.o(.constdata)
    __func__                                 0x08062c48   Data          16  bootcfg.o(.constdata)
    .constdata                               0x08062c58   Section       42  bsmac_parser.o(.constdata)
    __func__                                 0x08062c58   Data          25  bsmac_parser.o(.constdata)
    __func__                                 0x08062c71   Data          17  bsmac_parser.o(.constdata)
    .constdata                               0x08062c82   Section       19  location_data.o(.constdata)
    __func__                                 0x08062c82   Data          19  location_data.o(.constdata)
    .constdata                               0x08062c95   Section      401  mbus_app.o(.constdata)
    __FUNCTION__                             0x08062c95   Data          31  mbus_app.o(.constdata)
    __func__                                 0x08062cb4   Data          23  mbus_app.o(.constdata)
    __func__                                 0x08062ccb   Data          25  mbus_app.o(.constdata)
    __func__                                 0x08062ce4   Data          31  mbus_app.o(.constdata)
    __func__                                 0x08062d03   Data          27  mbus_app.o(.constdata)
    __FUNCTION__                             0x08062d1e   Data          26  mbus_app.o(.constdata)
    __FUNCTION__                             0x08062d38   Data          25  mbus_app.o(.constdata)
    __func__                                 0x08062d51   Data          19  mbus_app.o(.constdata)
    __func__                                 0x08062d64   Data          21  mbus_app.o(.constdata)
    __func__                                 0x08062d79   Data          22  mbus_app.o(.constdata)
    __func__                                 0x08062d8f   Data          22  mbus_app.o(.constdata)
    __func__                                 0x08062da5   Data          24  mbus_app.o(.constdata)
    __FUNCTION__                             0x08062dbd   Data          21  mbus_app.o(.constdata)
    __FUNCTION__                             0x08062dd2   Data          27  mbus_app.o(.constdata)
    __func__                                 0x08062ded   Data          22  mbus_app.o(.constdata)
    __FUNCTION__                             0x08062e03   Data          17  mbus_app.o(.constdata)
    __func__                                 0x08062e14   Data          18  mbus_app.o(.constdata)
    .constdata                               0x08062e26   Section       24  msg_center.o(.constdata)
    __func__                                 0x08062e26   Data          24  msg_center.o(.constdata)
    .constdata                               0x08062e40   Section      474  net_app.o(.constdata)
    __func__                                 0x08062e40   Data          21  net_app.o(.constdata)
    __func__                                 0x08062e55   Data          19  net_app.o(.constdata)
    __func__                                 0x08062e68   Data          22  net_app.o(.constdata)
    __func__                                 0x08062e7e   Data          15  net_app.o(.constdata)
    __FUNCTION__                             0x08062e8d   Data          15  net_app.o(.constdata)
    __FUNCTION__                             0x08062e9c   Data          21  net_app.o(.constdata)
    __func__                                 0x08062eb1   Data          20  net_app.o(.constdata)
    __FUNCTION__                             0x08062ec5   Data          15  net_app.o(.constdata)
    __func__                                 0x08062ed4   Data          20  net_app.o(.constdata)
    __func__                                 0x08062ee8   Data           9  net_app.o(.constdata)
    __FUNCTION__                             0x08062ef1   Data          19  net_app.o(.constdata)
    __FUNCTION__                             0x08062f04   Data          17  net_app.o(.constdata)
    __func__                                 0x08062f15   Data          17  net_app.o(.constdata)
    __func__                                 0x08062f26   Data          31  net_app.o(.constdata)
    __func__                                 0x08062f45   Data          24  net_app.o(.constdata)
    __FUNCTION__                             0x08062f5d   Data          22  net_app.o(.constdata)
    __func__                                 0x08062f73   Data          17  net_app.o(.constdata)
    __func__                                 0x08062f84   Data          15  net_app.o(.constdata)
    .constdata                               0x0806301a   Section       46  upgrade_flag.o(.constdata)
    __func__                                 0x08063023   Data          18  upgrade_flag.o(.constdata)
    __func__                                 0x08063035   Data          19  upgrade_flag.o(.constdata)
    .constdata                               0x08063048   Section       72  usart.o(.constdata)
    stm32_uart_ops                           0x08063048   Data          20  usart.o(.constdata)
    __FUNCTION__                             0x0806305c   Data          16  usart.o(.constdata)
    __FUNCTION__                             0x0806306c   Data          14  usart.o(.constdata)
    __FUNCTION__                             0x0806307a   Data          11  usart.o(.constdata)
    __FUNCTION__                             0x08063085   Data          11  usart.o(.constdata)
    .constdata                               0x08063090   Section       59  spi_flash_w25qxx.o(.constdata)
    __FUNCTION__                             0x08063090   Data          18  spi_flash_w25qxx.o(.constdata)
    __FUNCTION__                             0x080630a2   Data          20  spi_flash_w25qxx.o(.constdata)
    __FUNCTION__                             0x080630b6   Data          21  spi_flash_w25qxx.o(.constdata)
    .constdata                               0x080630cb   Section       15  stm32f2_rtc.o(.constdata)
    __FUNCTION__                             0x080630cb   Data          15  stm32f2_rtc.o(.constdata)
    .constdata                               0x080630dc   Section       72  stm32f2xx_exti.o(.constdata)
    .constdata                               0x08063124   Section       72  stm32f2xx_flash.o(.constdata)
    .constdata                               0x0806316c   Section       72  stm32f2xx_gpio.o(.constdata)
    .constdata                               0x080631b4   Section       72  stm32f2xx_iwdg.o(.constdata)
    .constdata                               0x080631fc   Section       72  stm32f2xx_pwr.o(.constdata)
    .constdata                               0x08063244   Section       72  stm32f2xx_rcc.o(.constdata)
    .constdata                               0x0806328c   Section       72  stm32f2xx_rtc.o(.constdata)
    .constdata                               0x080632d4   Section       72  stm32f2xx_spi.o(.constdata)
    .constdata                               0x0806331c   Section       76  stm32f2xx_syscfg.o(.constdata)
    .constdata                               0x08063368   Section       72  stm32f2xx_usart.o(.constdata)
    .constdata                               0x080633b0   Section      512  crc.o(.constdata)
    auchCRCHi                                0x080633b0   Data         256  crc.o(.constdata)
    auchCRCLo                                0x080634b0   Data         256  crc.o(.constdata)
    .constdata                               0x080635b0   Section      168  device.o(.constdata)
    __FUNCTION__                             0x080635b0   Data          21  device.o(.constdata)
    __FUNCTION__                             0x080635c5   Data          15  device.o(.constdata)
    __FUNCTION__                             0x080635d4   Data          15  device.o(.constdata)
    __FUNCTION__                             0x080635e3   Data          16  device.o(.constdata)
    __FUNCTION__                             0x080635f3   Data          15  device.o(.constdata)
    __FUNCTION__                             0x08063602   Data          16  device.o(.constdata)
    __FUNCTION__                             0x08063612   Data          18  device.o(.constdata)
    __FUNCTION__                             0x08063624   Data          26  device.o(.constdata)
    __FUNCTION__                             0x0806363e   Data          26  device.o(.constdata)
    .constdata                               0x08063658   Section       22  idle.o(.constdata)
    __FUNCTION__                             0x08063658   Data          22  idle.o(.constdata)
    .constdata                               0x0806366e   Section      454  ipc.o(.constdata)
    __FUNCTION__                             0x0806366e   Data          12  ipc.o(.constdata)
    __FUNCTION__                             0x0806367a   Data          14  ipc.o(.constdata)
    __FUNCTION__                             0x08063688   Data          14  ipc.o(.constdata)
    __FUNCTION__                             0x08063696   Data          14  ipc.o(.constdata)
    __FUNCTION__                             0x080636a4   Data          12  ipc.o(.constdata)
    __FUNCTION__                             0x080636b0   Data          15  ipc.o(.constdata)
    __FUNCTION__                             0x080636bf   Data          14  ipc.o(.constdata)
    __FUNCTION__                             0x080636cd   Data          16  ipc.o(.constdata)
    __FUNCTION__                             0x080636dd   Data          16  ipc.o(.constdata)
    __FUNCTION__                             0x080636ed   Data          16  ipc.o(.constdata)
    __FUNCTION__                             0x080636fd   Data          14  ipc.o(.constdata)
    __FUNCTION__                             0x0806370b   Data          14  ipc.o(.constdata)
    __FUNCTION__                             0x08063719   Data          16  ipc.o(.constdata)
    __FUNCTION__                             0x08063729   Data          16  ipc.o(.constdata)
    __FUNCTION__                             0x08063739   Data          16  ipc.o(.constdata)
    __FUNCTION__                             0x08063749   Data          14  ipc.o(.constdata)
    __FUNCTION__                             0x08063757   Data          14  ipc.o(.constdata)
    __FUNCTION__                             0x08063765   Data          17  ipc.o(.constdata)
    __FUNCTION__                             0x08063776   Data          11  ipc.o(.constdata)
    __FUNCTION__                             0x08063781   Data          13  ipc.o(.constdata)
    __FUNCTION__                             0x0806378e   Data          13  ipc.o(.constdata)
    __FUNCTION__                             0x0806379b   Data          13  ipc.o(.constdata)
    __FUNCTION__                             0x080637a8   Data          16  ipc.o(.constdata)
    __FUNCTION__                             0x080637b8   Data          11  ipc.o(.constdata)
    __FUNCTION__                             0x080637c3   Data          14  ipc.o(.constdata)
    __FUNCTION__                             0x080637d1   Data          11  ipc.o(.constdata)
    __FUNCTION__                             0x080637dc   Data          13  ipc.o(.constdata)
    __FUNCTION__                             0x080637e9   Data          13  ipc.o(.constdata)
    __FUNCTION__                             0x080637f6   Data          13  ipc.o(.constdata)
    __FUNCTION__                             0x08063803   Data          11  ipc.o(.constdata)
    __FUNCTION__                             0x0806380e   Data          13  ipc.o(.constdata)
    __FUNCTION__                             0x0806381b   Data          11  ipc.o(.constdata)
    __FUNCTION__                             0x08063826   Data          14  ipc.o(.constdata)
    .constdata                               0x08063834   Section       34  kservice.o(.constdata)
    small_digits                             0x08063834   Data          17  kservice.o(.constdata)
    large_digits                             0x08063845   Data          17  kservice.o(.constdata)
    .constdata                               0x08063858   Section      312  mem.o(.constdata)
    __FUNCTION__                             0x08063858   Data           8  mem.o(.constdata)
    __FUNCTION__                             0x08063860   Data          11  mem.o(.constdata)
    __FUNCTION__                             0x0806386b   Data          20  mem.o(.constdata)
    __FUNCTION__                             0x0806387f   Data          10  mem.o(.constdata)
    __FUNCTION__                             0x08063889   Data          11  mem.o(.constdata)
    __FUNCTION__                             0x08063894   Data          10  mem.o(.constdata)
    .constdata                               0x08063990   Section       94  object.o(.constdata)
    __FUNCTION__                             0x08063990   Data          17  object.o(.constdata)
    __FUNCTION__                             0x080639a1   Data          19  object.o(.constdata)
    __FUNCTION__                             0x080639b4   Data          17  object.o(.constdata)
    __FUNCTION__                             0x080639c5   Data          26  object.o(.constdata)
    __FUNCTION__                             0x080639df   Data          15  object.o(.constdata)
    .constdata                               0x080639ee   Section      334  scheduler.o(.constdata)
    __FUNCTION__                             0x08063aee   Data          26  scheduler.o(.constdata)
    __FUNCTION__                             0x08063b08   Data          26  scheduler.o(.constdata)
    __FUNCTION__                             0x08063b22   Data          26  scheduler.o(.constdata)
    .constdata                               0x08063b3c   Section      170  thread.o(.constdata)
    __FUNCTION__                             0x08063b3c   Data          16  thread.o(.constdata)
    __FUNCTION__                             0x08063b4c   Data          15  thread.o(.constdata)
    __FUNCTION__                             0x08063b5b   Data          18  thread.o(.constdata)
    __FUNCTION__                             0x08063b6d   Data          17  thread.o(.constdata)
    __FUNCTION__                             0x08063b7e   Data          17  thread.o(.constdata)
    __FUNCTION__                             0x08063b8f   Data          16  thread.o(.constdata)
    __FUNCTION__                             0x08063b9f   Data          18  thread.o(.constdata)
    __FUNCTION__                             0x08063bb1   Data          18  thread.o(.constdata)
    __FUNCTION__                             0x08063bc3   Data          17  thread.o(.constdata)
    __FUNCTION__                             0x08063bd4   Data          18  thread.o(.constdata)
    .constdata                               0x08063be6   Section       92  timer.o(.constdata)
    __FUNCTION__                             0x08063be6   Data          14  timer.o(.constdata)
    __FUNCTION__                             0x08063bf4   Data          16  timer.o(.constdata)
    __FUNCTION__                             0x08063c04   Data          16  timer.o(.constdata)
    __FUNCTION__                             0x08063c14   Data          15  timer.o(.constdata)
    __FUNCTION__                             0x08063c23   Data          14  timer.o(.constdata)
    __FUNCTION__                             0x08063c31   Data          17  timer.o(.constdata)
    .constdata                               0x08063c42   Section       19  cpuport.o(.constdata)
    __FUNCTION__                             0x08063c42   Data          19  cpuport.o(.constdata)
    .constdata                               0x08063c55   Section       35  dfs.o(.constdata)
    __FUNCTION__                             0x08063c55   Data           7  dfs.o(.constdata)
    __FUNCTION__                             0x08063c5c   Data           9  dfs.o(.constdata)
    __FUNCTION__                             0x08063c65   Data          19  dfs.o(.constdata)
    .constdata                               0x08063c78   Section       29  dfs_fs.o(.constdata)
    __FUNCTION__                             0x08063c78   Data          29  dfs_fs.o(.constdata)
    .constdata                               0x08063c98   Section      185  dfs_elm.o(.constdata)
    dfs_elm                                  0x08063c98   Data          68  dfs_elm.o(.constdata)
    __FUNCTION__                             0x08063cdc   Data          16  dfs_elm.o(.constdata)
    __FUNCTION__                             0x08063cec   Data          15  dfs_elm.o(.constdata)
    __FUNCTION__                             0x08063cfb   Data          14  dfs_elm.o(.constdata)
    __FUNCTION__                             0x08063d09   Data          13  dfs_elm.o(.constdata)
    __FUNCTION__                             0x08063d16   Data          14  dfs_elm.o(.constdata)
    __FUNCTION__                             0x08063d24   Data          14  dfs_elm.o(.constdata)
    __FUNCTION__                             0x08063d32   Data          14  dfs_elm.o(.constdata)
    __FUNCTION__                             0x08063d40   Data          17  dfs_elm.o(.constdata)
    .constdata                               0x08063d52   Section       44  ff.o(.constdata)
    vst                                      0x08063d52   Data          22  ff.o(.constdata)
    cst                                      0x08063d68   Data          22  ff.o(.constdata)
    .constdata                               0x08063d7e   Section      134  serial.o(.constdata)
    __FUNCTION__                             0x08063d7e   Data          15  serial.o(.constdata)
    __FUNCTION__                             0x08063d8d   Data          15  serial.o(.constdata)
    __FUNCTION__                             0x08063d9c   Data          16  serial.o(.constdata)
    __FUNCTION__                             0x08063dac   Data          15  serial.o(.constdata)
    __FUNCTION__                             0x08063dbb   Data          16  serial.o(.constdata)
    __FUNCTION__                             0x08063dcb   Data          18  serial.o(.constdata)
    __FUNCTION__                             0x08063ddd   Data          22  serial.o(.constdata)
    __FUNCTION__                             0x08063df3   Data          17  serial.o(.constdata)
    .constdata                               0x08063e04   Section      163  spi_core.o(.constdata)
    __FUNCTION__                             0x08063e04   Data          17  spi_core.o(.constdata)
    __FUNCTION__                             0x08063e15   Data          22  spi_core.o(.constdata)
    __FUNCTION__                             0x08063e2b   Data          22  spi_core.o(.constdata)
    __FUNCTION__                             0x08063e41   Data          16  spi_core.o(.constdata)
    __FUNCTION__                             0x08063e51   Data          24  spi_core.o(.constdata)
    __FUNCTION__                             0x08063e69   Data          16  spi_core.o(.constdata)
    __FUNCTION__                             0x08063e79   Data          19  spi_core.o(.constdata)
    __FUNCTION__                             0x08063e8c   Data          12  spi_core.o(.constdata)
    __FUNCTION__                             0x08063e98   Data          15  spi_core.o(.constdata)
    .constdata                               0x08063ea7   Section      217  spi_dev.o(.constdata)
    __FUNCTION__                             0x08063ea7   Data          21  spi_dev.o(.constdata)
    __FUNCTION__                             0x08063ebc   Data          21  spi_dev.o(.constdata)
    __FUNCTION__                             0x08063ed1   Data          22  spi_dev.o(.constdata)
    __FUNCTION__                             0x08063ee7   Data          24  spi_dev.o(.constdata)
    __FUNCTION__                             0x08063eff   Data          23  spi_dev.o(.constdata)
    __FUNCTION__                             0x08063f16   Data          20  spi_dev.o(.constdata)
    __FUNCTION__                             0x08063f2a   Data          20  spi_dev.o(.constdata)
    __FUNCTION__                             0x08063f3e   Data          21  spi_dev.o(.constdata)
    __FUNCTION__                             0x08063f53   Data          23  spi_dev.o(.constdata)
    __FUNCTION__                             0x08063f6a   Data          22  spi_dev.o(.constdata)
    .constdata                               0x08063f80   Section       75  dataqueue.o(.constdata)
    __FUNCTION__                             0x08063f80   Data          19  dataqueue.o(.constdata)
    __FUNCTION__                             0x08063f93   Data          19  dataqueue.o(.constdata)
    __FUNCTION__                             0x08063fa6   Data          18  dataqueue.o(.constdata)
    __FUNCTION__                             0x08063fb8   Data          19  dataqueue.o(.constdata)
    .constdata                               0x08063fcc   Section       64  sockets.o(.constdata)
    err_to_errno_table                       0x08063fcc   Data          64  sockets.o(.constdata)
    .constdata                               0x0806400c   Section      179  sys_arch.o(.constdata)
    __FUNCTION__                             0x0806400c   Data          12  sys_arch.o(.constdata)
    __FUNCTION__                             0x08064018   Data          13  sys_arch.o(.constdata)
    __FUNCTION__                             0x08064025   Data          18  sys_arch.o(.constdata)
    __FUNCTION__                             0x08064037   Data          14  sys_arch.o(.constdata)
    __FUNCTION__                             0x08064045   Data          15  sys_arch.o(.constdata)
    __FUNCTION__                             0x08064054   Data          15  sys_arch.o(.constdata)
    __FUNCTION__                             0x08064063   Data          13  sys_arch.o(.constdata)
    __FUNCTION__                             0x08064070   Data          14  sys_arch.o(.constdata)
    __FUNCTION__                             0x0806407e   Data          14  sys_arch.o(.constdata)
    __FUNCTION__                             0x0806408c   Data          20  sys_arch.o(.constdata)
    __FUNCTION__                             0x080640a0   Data          15  sys_arch.o(.constdata)
    __FUNCTION__                             0x080640af   Data          16  sys_arch.o(.constdata)
    .constdata                               0x080640c0   Section      137  dhcp.o(.constdata)
    .constdata                               0x0806414a   Section       28  memp.o(.constdata)
    .constdata                               0x08064168   Section       84  tcp.o(.constdata)
    .constdata                               0x080641bc   Section       85  tcp_out.o(.constdata)
    .constdata                               0x08064214   Section        4  ip_addr.o(.constdata)
    .constdata                               0x08064218   Section        4  ip_addr.o(.constdata)
    .constdata                               0x0806421c   Section       80  etharp.o(.constdata)
    .constdata                               0x0806426c   Section       65  ethernetif.o(.constdata)
    __FUNCTION__                             0x0806426c   Data          22  ethernetif.o(.constdata)
    __FUNCTION__                             0x08064282   Data          20  ethernetif.o(.constdata)
    __FUNCTION__                             0x08064296   Data          23  ethernetif.o(.constdata)
    .constdata                               0x080642ad   Section       40  _printf_hex_int.o(.constdata)
    uc_hextab                                0x080642ad   Data          20  _printf_hex_int.o(.constdata)
    lc_hextab                                0x080642c1   Data          20  _printf_hex_int.o(.constdata)
    .constdata                               0x080642d5   Section       17  __printf_flags_wp.o(.constdata)
    maptable                                 0x080642d5   Data          17  __printf_flags_wp.o(.constdata)
    .constdata                               0x080642e6   Section       12  _monlen.o(.constdata)
    .conststring                             0x080642f2   Section       64  bootcfg.o(.conststring)
    .conststring                             0x08064332   Section        4  dfs_elm.o(.conststring)
    .conststring                             0x08064336   Section      104  tcp.o(.conststring)
    locale$$data                             0x080643c0   Section      272  lc_ctype_c.o(locale$$data)
    __lcctype_c_name                         0x080643c4   Data           2  lc_ctype_c.o(locale$$data)
    __lcctype_c_start                        0x080643cc   Data           0  lc_ctype_c.o(locale$$data)
    __lcctype_c_end                          0x080644d0   Data           0  lc_ctype_c.o(locale$$data)
    .data                                    0x20000000   Section        4  3g_watchdog.o(.data)
    .data                                    0x20000004   Section        4  3g_watchdog.o(.data)
    cnt                                      0x20000004   Data           4  3g_watchdog.o(.data)
    .data                                    0x20000008   Section        8  bootcfg.o(.data)
    boot_thread                              0x20000008   Data           4  bootcfg.o(.data)
    .data                                    0x20000010   Section       20  bsmac_parser.o(.data)
    bsmac_recv1_data_cnt                     0x20000010   Data           1  bsmac_parser.o(.data)
    bsmac_recv2_data_cnt                     0x20000011   Data           1  bsmac_parser.o(.data)
    rssi_modules_link_state                  0x20000012   Data           1  bsmac_parser.o(.data)
    idx                                      0x20000013   Data           1  bsmac_parser.o(.data)
    idx                                      0x20000014   Data           1  bsmac_parser.o(.data)
    idle_idx                                 0x20000015   Data           1  bsmac_parser.o(.data)
    bsmac_thread                             0x20000018   Data           4  bsmac_parser.o(.data)
    last_tick                                0x2000001c   Data           4  bsmac_parser.o(.data)
    last_data_recv_tick                      0x20000020   Data           4  bsmac_parser.o(.data)
    .data                                    0x20000024   Section       13  location_data.o(.data)
    sav_data_fd                              0x20000024   Data           4  location_data.o(.data)
    sav_data_file                            0x20000028   Data           9  location_data.o(.data)
    .data                                    0x20000034   Section       16  mbus_app.o(.data)
    version_req_seq                          0x20000034   Data           1  mbus_app.o(.data)
    scan_cnt                                 0x20000035   Data           1  mbus_app.o(.data)
    idle_id                                  0x20000036   Data           2  mbus_app.o(.data)
    mbus_thread                              0x20000038   Data           4  mbus_app.o(.data)
    mbus                                     0x2000003c   Data           8  mbus_app.o(.data)
    .data                                    0x20000044   Section        4  msg_center.o(.data)
    msg_analyser_thread                      0x20000044   Data           4  msg_center.o(.data)
    .data                                    0x20000048   Section       40  net_app.o(.data)
    send_err_flag                            0x2000004a   Data           1  net_app.o(.data)
    net_restart_flag                         0x2000004b   Data           1  net_app.o(.data)
    net_sock                                 0x2000004c   Data           4  net_app.o(.data)
    net_IsOk                                 0x20000050   Data           4  net_app.o(.data)
    sock_mutex                               0x20000054   Data           4  net_app.o(.data)
    recent_report_time                       0x2000005c   Data           4  net_app.o(.data)
    restart_time                             0x20000060   Data           4  net_app.o(.data)
    running_hours                            0x20000064   Data           4  net_app.o(.data)
    server_sock                              0x20000068   Data           4  net_app.o(.data)
    connect_sock                             0x2000006c   Data           4  net_app.o(.data)
    .data                                    0x20000070   Section       20  system_stm32f2xx.o(.data)
    .data                                    0x20000084   Section        4  upgrade_flag.o(.data)
    .data                                    0x20000088   Section       16  platform.o(.data)
    spi_cs                                   0x20000088   Data           8  platform.o(.data)
    spi_cs                                   0x20000090   Data           8  platform.o(.data)
    .data                                    0x20000098   Section       40  usart.o(.data)
    .data                                    0x200000c0   Section       24  stm32f2xx_eth.o(.data)
    phy_speed                                0x200000c0   Data           1  stm32f2xx_eth.o(.data)
    tx_is_waiting                            0x200000c4   Data           4  stm32f2xx_eth.o(.data)
    .data                                    0x200000d8   Section        8  stm32f20x_40x_spi.o(.data)
    stm32_spi_ops                            0x200000d8   Data           8  stm32f20x_40x_spi.o(.data)
    .data                                    0x200000e0   Section       96  stm32f2_rtc.o(.data)
    .data                                    0x20000140   Section       16  stm32f2xx_rcc.o(.data)
    APBAHBPrescTable                         0x20000140   Data          16  stm32f2xx_rcc.o(.data)
    .data                                    0x20000150   Section        4  clock.o(.data)
    rt_tick                                  0x20000150   Data           4  clock.o(.data)
    .data                                    0x20000154   Section        4  idle.o(.data)
    rt_thread_idle_hook                      0x20000154   Data           4  idle.o(.data)
    .data                                    0x20000158   Section        1  irq.o(.data)
    .data                                    0x2000015c   Section        8  kservice.o(.data)
    _console_device                          0x2000015c   Data           4  kservice.o(.data)
    _errno                                   0x20000160   Data           4  kservice.o(.data)
    .data                                    0x20000164   Section       32  mem.o(.data)
    rt_malloc_hook                           0x20000164   Data           4  mem.o(.data)
    rt_free_hook                             0x20000168   Data           4  mem.o(.data)
    heap_ptr                                 0x2000016c   Data           4  mem.o(.data)
    heap_end                                 0x20000170   Data           4  mem.o(.data)
    lfree                                    0x20000174   Data           4  mem.o(.data)
    mem_size_aligned                         0x20000178   Data           4  mem.o(.data)
    used_mem                                 0x2000017c   Data           4  mem.o(.data)
    max_mem                                  0x20000180   Data           4  mem.o(.data)
    .data                                    0x20000184   Section      164  object.o(.data)
    rt_object_attach_hook                    0x20000184   Data           4  object.o(.data)
    rt_object_detach_hook                    0x20000188   Data           4  object.o(.data)
    .data                                    0x20000228   Section       24  scheduler.o(.data)
    rt_scheduler_lock_nest                   0x2000022a   Data           2  scheduler.o(.data)
    rt_scheduler_hook                        0x20000234   Data           4  scheduler.o(.data)
    .data                                    0x20000240   Section       12  timer.o(.data)
    rt_timer_timeout_hook                    0x20000240   Data           4  timer.o(.data)
    rt_timer_list                            0x20000244   Data           8  timer.o(.data)
    .data                                    0x2000024c   Section        4  cpuport.o(.data)
    rt_exception_hook                        0x2000024c   Data           4  cpuport.o(.data)
    .data                                    0x20000250   Section        4  cpuport.o(.data)
    .data                                    0x20000254   Section        4  cpuport.o(.data)
    .data                                    0x20000258   Section        4  cpuport.o(.data)
    .data                                    0x2000025c   Section      256  dfs.o(.data)
    .data                                    0x2000035c   Section        4  dfs_elm.o(.data)
    disk                                     0x2000035c   Data           4  dfs_elm.o(.data)
    .data                                    0x20000360   Section        8  ff.o(.data)
    Fsid                                     0x20000360   Data           2  ff.o(.data)
    FatFs                                    0x20000364   Data           4  ff.o(.data)
    .data                                    0x20000368   Section        4  rtc.o(.data)
    device                                   0x20000368   Data           4  rtc.o(.data)
    .data                                    0x2000036c   Section        8  sockets.o(.data)
    select_cb_list                           0x2000036c   Data           4  sockets.o(.data)
    select_cb_ctr                            0x20000370   Data           4  sockets.o(.data)
    .data                                    0x20000374   Section       12  tcpip.o(.data)
    tcpip_init_done                          0x20000374   Data           4  tcpip.o(.data)
    tcpip_init_done_arg                      0x20000378   Data           4  tcpip.o(.data)
    mbox                                     0x2000037c   Data           4  tcpip.o(.data)
    .data                                    0x20000380   Section        6  sys_arch.o(.data)
    counter                                  0x20000380   Data           2  sys_arch.o(.data)
    counter                                  0x20000382   Data           2  sys_arch.o(.data)
    counter                                  0x20000384   Data           2  sys_arch.o(.data)
    .data                                    0x20000388   Section        4  dhcp.o(.data)
    xid                                      0x20000388   Data           4  dhcp.o(.data)
    .data                                    0x2000038c   Section       20  dns.o(.data)
    dns_seqno                                0x2000038c   Data           1  dns.o(.data)
    dns_pcb                                  0x20000390   Data           4  dns.o(.data)
    dns_payload                              0x20000394   Data           4  dns.o(.data)
    dns_servers                              0x20000398   Data           8  dns.o(.data)
    .data                                    0x200003a0   Section       12  netif.o(.data)
    netifnum                                 0x200003a0   Data           1  netif.o(.data)
    .data                                    0x200003ac   Section        1  pbuf.o(.data)
    pbuf_free_ooseq_queued                   0x200003ac   Data           1  pbuf.o(.data)
    .data                                    0x200003b0   Section        4  raw.o(.data)
    raw_pcbs                                 0x200003b0   Data           4  raw.o(.data)
    .data                                    0x200003b4   Section       32  tcp.o(.data)
    tcp_timer                                0x200003b4   Data           1  tcp.o(.data)
    port                                     0x200003b6   Data           2  tcp.o(.data)
    iss                                      0x200003b8   Data           4  tcp.o(.data)
    .data                                    0x200003d4   Section       28  tcp_in.o(.data)
    flags                                    0x200003d4   Data           1  tcp_in.o(.data)
    recv_flags                               0x200003d5   Data           1  tcp_in.o(.data)
    tcplen                                   0x200003d6   Data           2  tcp_in.o(.data)
    tcphdr                                   0x200003d8   Data           4  tcp_in.o(.data)
    iphdr                                    0x200003dc   Data           4  tcp_in.o(.data)
    seqno                                    0x200003e0   Data           4  tcp_in.o(.data)
    ackno                                    0x200003e4   Data           4  tcp_in.o(.data)
    recv_data                                0x200003e8   Data           4  tcp_in.o(.data)
    .data                                    0x200003f0   Section        8  timers.o(.data)
    next_timeout                             0x200003f0   Data           4  timers.o(.data)
    tcpip_tcp_timer_active                   0x200003f4   Data           4  timers.o(.data)
    .data                                    0x200003f8   Section        4  udp.o(.data)
    .data                                    0x200003fc   Section       20  ip.o(.data)
    ip_id                                    0x200003fc   Data           2  ip.o(.data)
    .data                                    0x20000410   Section        1  etharp.o(.data)
    etharp_cached_entry                      0x20000410   Data           1  etharp.o(.data)
    .bss                                     0x20000414   Section       88  3g_watchdog.o(.bss)
    feed_hw_wtd_timer                        0x20000414   Data          44  3g_watchdog.o(.bss)
    feed_iwdg_timer                          0x20000440   Data          44  3g_watchdog.o(.bss)
    .bss                                     0x2000046c   Section       64  bootcfg.o(.bss)
    .bss                                     0x200004ac   Section     7788  bsmac_parser.o(.bss)
    rev_buf                                  0x200004ac   Data         128  bsmac_parser.o(.bss)
    uart_buf                                 0x2000052c   Data         512  bsmac_parser.o(.bss)
    DataReqBuf                               0x2000072c   Data         128  bsmac_parser.o(.bss)
    pAckBuf                                  0x200007ac   Data         128  bsmac_parser.o(.bss)
    au8Buf                                   0x2000082c   Data        1024  bsmac_parser.o(.bss)
    bsmac_mq_pool                            0x20000c60   Data        2048  bsmac_parser.o(.bss)
    bsmac_hdl                                0x20001460   Data        2112  bsmac_parser.o(.bss)
    bsmac_phone_info                         0x20001ca0   Data        1400  bsmac_parser.o(.bss)
    bsmac_err_buf                            0x20002218   Data         256  bsmac_parser.o(.bss)
    .bss                                     0x20002318   Section       44  led_indicator.o(.bss)
    sys_status_timer                         0x20002318   Data          44  led_indicator.o(.bss)
    .bss                                     0x20002344   Section      148  location_data.o(.bss)
    ldata_state                              0x20002344   Data         148  location_data.o(.bss)
    .bss                                     0x200023d8   Section    15206  mbus_app.o(.bss)
    seq                                      0x200023d8   Data         255  mbus_app.o(.bss)
    mbus_net_msg_buf                         0x200024d7   Data        1024  mbus_app.o(.bss)
    mbus_comm_buf                            0x20005940   Data        1024  mbus_app.o(.bss)
    mbus_node_state                          0x20005d40   Data         255  mbus_app.o(.bss)
    mbus_node_data_query_err_cnt             0x20005e3f   Data         255  mbus_app.o(.bss)
    .bss                                     0x20005f40   Section     1096  msg_center.o(.bss)
    msg_analyser_handle                      0x20005f40   Data          20  msg_center.o(.bss)
    msg_buf                                  0x20005f88   Data        1024  msg_center.o(.bss)
    .bss                                     0x20006388   Section    10240  msg_center.o(.bss)
    .bss                                     0x20008b88   Section     3012  net_app.o(.bss)
    report_msg_buf                           0x20008b88   Data         272  net_app.o(.bss)
    send_buf                                 0x20008ccc   Data        1024  net_app.o(.bss)
    recv_buf                                 0x200090cc   Data        1024  net_app.o(.bss)
    net_err_buf                              0x200094cc   Data         128  net_app.o(.bss)
    server_msg_buf                           0x2000954c   Data         512  net_app.o(.bss)
    .bss                                     0x2000974c   Section    16384  net_app.o(.bss)
    .bss                                     0x2000d74c   Section      376  platform.o(.bss)
    stm32_spi                                0x2000d74c   Data         112  platform.o(.bss)
    spi_device                               0x2000d7bc   Data          76  platform.o(.bss)
    stm32_spi                                0x2000d808   Data         112  platform.o(.bss)
    spi_device                               0x2000d878   Data          76  platform.o(.bss)
    .bss                                     0x2000d8c4   Section     5760  usart.o(.bss)
    .bss                                     0x2000ef44   Section     9472  stm32f2xx_eth.o(.bss)
    DMARxDscrTab                             0x2000ef44   Data         128  stm32f2xx_eth.o(.bss)
    DMATxDscrTab                             0x2000efc4   Data          64  stm32f2xx_eth.o(.bss)
    Rx_Buff                                  0x2000f004   Data        6080  stm32f2xx_eth.o(.bss)
    Tx_Buff                                  0x200107c4   Data        3040  stm32f2xx_eth.o(.bss)
    stm32_eth_device                         0x200113a4   Data         128  stm32f2xx_eth.o(.bss)
    tx_wait                                  0x20011424   Data          32  stm32f2xx_eth.o(.bss)
    .bss                                     0x20011444   Section      116  spi_flash_w25qxx.o(.bss)
    spi_flash_device                         0x20011444   Data         116  spi_flash_w25qxx.o(.bss)
    .bss                                     0x200114b8   Section       64  stm32f2_rtc.o(.bss)
    rtc                                      0x200114b8   Data          64  stm32f2_rtc.o(.bss)
    .bss                                     0x200114f8   Section      640  idle.o(.bss)
    idle                                     0x200114f8   Data         128  idle.o(.bss)
    rt_thread_stack                          0x20011578   Data         512  idle.o(.bss)
    .bss                                     0x20011778   Section      128  kservice.o(.bss)
    rt_log_buf                               0x20011778   Data         128  kservice.o(.bss)
    .bss                                     0x200117f8   Section       32  mem.o(.bss)
    heap_sem                                 0x200117f8   Data          32  mem.o(.bss)
    .bss                                     0x20011818   Section      256  scheduler.o(.bss)
    .bss                                     0x20011918   Section      212  dfs.o(.bss)
    fslock                                   0x20011948   Data          36  dfs.o(.bss)
    .bss                                     0x200119ec   Section       96  sockets.o(.bss)
    sockets                                  0x200119ec   Data          96  sockets.o(.bss)
    .bss                                     0x20011a4c   Section       50  dhcp.o(.bss)
    .bss                                     0x20011a80   Section     1635  dns.o(.bss)
    dns_table                                0x20011a80   Data        1120  dns.o(.bss)
    dns_payload_buffer                       0x20011ee0   Data         515  dns.o(.bss)
    .bss                                     0x200120e4   Section       16  tcp_in.o(.bss)
    inseg                                    0x200120e4   Data          16  tcp_in.o(.bss)
    .bss                                     0x200120f4   Section       16  ip_addr.o(.bss)
    str                                      0x200120f4   Data          16  ip_addr.o(.bss)
    .bss                                     0x20012104   Section      160  etharp.o(.bss)
    arp_table                                0x20012104   Data         160  etharp.o(.bss)
    .bss                                     0x200121a4   Section     1408  ethernetif.o(.bss)
    eth_tx_thread_mb                         0x200121a4   Data          48  ethernetif.o(.bss)
    eth_tx_thread                            0x200121d4   Data         128  ethernetif.o(.bss)
    eth_tx_thread_mb_pool                    0x20012254   Data          16  ethernetif.o(.bss)
    eth_tx_thread_stack                      0x20012264   Data         512  ethernetif.o(.bss)
    eth_rx_thread_mb                         0x20012464   Data          48  ethernetif.o(.bss)
    eth_rx_thread                            0x20012494   Data         128  ethernetif.o(.bss)
    eth_rx_thread_mb_pool                    0x20012514   Data          16  ethernetif.o(.bss)
    eth_rx_thread_stack                      0x20012524   Data         512  ethernetif.o(.bss)
    .bss                                     0x20012724   Section       44  localtime.o(.bss)
    _tms                                     0x20012724   Data          44  localtime.o(.bss)
    .bss                                     0x20012750   Section       96  libspace.o(.bss)
    HEAP                                     0x200127b0   Section      512  startup_stm32f2xx.o(HEAP)
    Heap_Mem                                 0x200127b0   Data         512  startup_stm32f2xx.o(HEAP)
    STACK                                    0x200129b0   Section     1024  startup_stm32f2xx.o(STACK)
    Stack_Mem                                0x200129b0   Data        1024  startup_stm32f2xx.o(STACK)
    __initial_sp                             0x20012db0   Data           0  startup_stm32f2xx.o(STACK)

    Global Symbols

    Symbol Name                              Value     Ov Type        Size  Object(Section)

    BuildAttributes$$THM_ISAv4$P$D$K$B$S$PE$A:L22UL41UL21$X:L11$S22US41US21$IEEE1$IW$USESV6$~STKCKD$USESV7$~SHL$OTIME$ROPI$EBA8$UX$STANDARDLIB$REQ8$PRES8$EABIv2 0x00000000   Number         0  anon$$obj.o ABSOLUTE
    __ARM_use_no_argv                        0x00000000   Number         0  startup.o ABSOLUTE
    _printf_flags                            0x00000000   Number         0  printf_stubs.o ABSOLUTE
    _printf_return_value                     0x00000000   Number         0  printf_stubs.o ABSOLUTE
    _printf_sizespec                         0x00000000   Number         0  printf_stubs.o ABSOLUTE
    _printf_widthprec                        0x00000000   Number         0  printf_stubs.o ABSOLUTE
    __ARM_exceptions_init                     - Undefined Weak Reference
    __alloca_initialize                       - Undefined Weak Reference
    __cpp_initialize__aeabi_                  - Undefined Weak Reference
    __cxa_finalize                            - Undefined Weak Reference
    __sigvec_lookup                           - Undefined Weak Reference
    __user_heap_extent                        - Undefined Weak Reference
    _atexit_init                              - Undefined Weak Reference
    _call_atexit_fns                          - Undefined Weak Reference
    _clock_init                               - Undefined Weak Reference
    _fp_trap_init                             - Undefined Weak Reference
    _fp_trap_shutdown                         - Undefined Weak Reference
    _get_lc_collate                           - Undefined Weak Reference
    _get_lc_monetary                          - Undefined Weak Reference
    _get_lc_numeric                           - Undefined Weak Reference
    _get_lc_time                              - Undefined Weak Reference
    _getenv_init                              - Undefined Weak Reference
    _handle_redirection                       - Undefined Weak Reference
    _initio                                   - Undefined Weak Reference
    _mutex_acquire                            - Undefined Weak Reference
    _mutex_free                               - Undefined Weak Reference
    _mutex_release                            - Undefined Weak Reference
    _printf_mbtowc                            - Undefined Weak Reference
    _printf_truncate_signed                   - Undefined Weak Reference
    _printf_truncate_unsigned                 - Undefined Weak Reference
    _rand_init                                - Undefined Weak Reference
    _signal_finish                            - Undefined Weak Reference
    _signal_init                              - Undefined Weak Reference
    _terminateio                              - Undefined Weak Reference
    __Vectors_Size                           0x00000184   Number         0  startup_stm32f2xx.o ABSOLUTE
    __Vectors                                0x08040000   Data           4  startup_stm32f2xx.o(RESET)
    __Vectors_End                            0x08040184   Data           0  startup_stm32f2xx.o(RESET)
    __main                                   0x08040185   Thumb Code     8  __main.o(!!!main)
    __scatterload                            0x0804018d   Thumb Code     0  __scatter.o(!!!scatter)
    __scatterload_rt2                        0x0804018d   Thumb Code    44  __scatter.o(!!!scatter)
    __scatterload_rt2_thumb_only             0x0804018d   Thumb Code     0  __scatter.o(!!!scatter)
    __scatterload_null                       0x0804019b   Thumb Code     0  __scatter.o(!!!scatter)
    __decompress                             0x080401c1   Thumb Code    90  __dczerorl2.o(!!dczerorl2)
    __decompress1                            0x080401c1   Thumb Code     0  __dczerorl2.o(!!dczerorl2)
    __scatterload_zeroinit                   0x0804021d   Thumb Code    28  __scatter_zi.o(!!handler_zi)
    _printf_d                                0x08040239   Thumb Code     0  _printf_d.o(.ARM.Collect$$_printf_percent$$00000009)
    _printf_percent                          0x08040239   Thumb Code     0  _printf_percent.o(.ARM.Collect$$_printf_percent$$00000000)
    _printf_x                                0x0804023f   Thumb Code     0  _printf_x.o(.ARM.Collect$$_printf_percent$$0000000C)
    _printf_s                                0x08040245   Thumb Code     0  _printf_s.o(.ARM.Collect$$_printf_percent$$00000014)
    _printf_percent_end                      0x0804024b   Thumb Code     0  _printf_percent_end.o(.ARM.Collect$$_printf_percent$$00000017)
    __rt_lib_init                            0x0804024f   Thumb Code     0  libinit.o(.ARM.Collect$$libinit$$00000000)
    __rt_lib_init_fp_1                       0x08040251   Thumb Code     0  libinit2.o(.ARM.Collect$$libinit$$00000002)
    __rt_lib_init_heap_2                     0x08040251   Thumb Code     0  libinit2.o(.ARM.Collect$$libinit$$00000003)
    __rt_lib_init_heap_1                     0x08040259   Thumb Code     0  libinit2.o(.ARM.Collect$$libinit$$00000008)
    __rt_lib_init_lc_common                  0x08040259   Thumb Code     0  libinit2.o(.ARM.Collect$$libinit$$0000000D)
    __rt_lib_init_rand_1                     0x08040259   Thumb Code     0  libinit2.o(.ARM.Collect$$libinit$$0000000C)
    __rt_lib_init_user_alloc_1               0x08040259   Thumb Code     0  libinit2.o(.ARM.Collect$$libinit$$0000000A)
    __rt_lib_init_lc_collate_1               0x0804025f   Thumb Code     0  libinit2.o(.ARM.Collect$$libinit$$0000000F)
    __rt_lib_init_lc_ctype_2                 0x0804025f   Thumb Code     0  libinit2.o(.ARM.Collect$$libinit$$00000010)
    __rt_lib_init_alloca_1                   0x0804026b   Thumb Code     0  libinit2.o(.ARM.Collect$$libinit$$0000002C)
    __rt_lib_init_argv_1                     0x0804026b   Thumb Code     0  libinit2.o(.ARM.Collect$$libinit$$0000002A)
    __rt_lib_init_atexit_1                   0x0804026b   Thumb Code     0  libinit2.o(.ARM.Collect$$libinit$$00000019)
    __rt_lib_init_clock_1                    0x0804026b   Thumb Code     0  libinit2.o(.ARM.Collect$$libinit$$0000001F)
    __rt_lib_init_cpp_1                      0x0804026b   Thumb Code     0  libinit2.o(.ARM.Collect$$libinit$$00000030)
    __rt_lib_init_exceptions_1               0x0804026b   Thumb Code     0  libinit2.o(.ARM.Collect$$libinit$$0000002E)
    __rt_lib_init_fp_trap_1                  0x0804026b   Thumb Code     0  libinit2.o(.ARM.Collect$$libinit$$0000001D)
    __rt_lib_init_getenv_1                   0x0804026b   Thumb Code     0  libinit2.o(.ARM.Collect$$libinit$$00000021)
    __rt_lib_init_lc_ctype_1                 0x0804026b   Thumb Code     0  libinit2.o(.ARM.Collect$$libinit$$00000011)
    __rt_lib_init_lc_monetary_1              0x0804026b   Thumb Code     0  libinit2.o(.ARM.Collect$$libinit$$00000013)
    __rt_lib_init_lc_numeric_1               0x0804026b   Thumb Code     0  libinit2.o(.ARM.Collect$$libinit$$00000015)
    __rt_lib_init_lc_time_1                  0x0804026b   Thumb Code     0  libinit2.o(.ARM.Collect$$libinit$$00000017)
    __rt_lib_init_return                     0x0804026b   Thumb Code     0  libinit2.o(.ARM.Collect$$libinit$$00000031)
    __rt_lib_init_signal_1                   0x0804026b   Thumb Code     0  libinit2.o(.ARM.Collect$$libinit$$0000001B)
    __rt_lib_init_stdio_1                    0x0804026b   Thumb Code     0  libinit2.o(.ARM.Collect$$libinit$$00000023)
    __rt_lib_shutdown                        0x0804026d   Thumb Code     0  libshutdown.o(.ARM.Collect$$libshutdown$$00000000)
    __rt_lib_shutdown_fp_trap_1              0x0804026f   Thumb Code     0  libshutdown2.o(.ARM.Collect$$libshutdown$$00000006)
    __rt_lib_shutdown_heap_1                 0x0804026f   Thumb Code     0  libshutdown2.o(.ARM.Collect$$libshutdown$$0000000E)
    __rt_lib_shutdown_return                 0x0804026f   Thumb Code     0  libshutdown2.o(.ARM.Collect$$libshutdown$$0000000F)
    __rt_lib_shutdown_signal_1               0x0804026f   Thumb Code     0  libshutdown2.o(.ARM.Collect$$libshutdown$$00000009)
    __rt_lib_shutdown_stdio_1                0x0804026f   Thumb Code     0  libshutdown2.o(.ARM.Collect$$libshutdown$$00000003)
    __rt_lib_shutdown_user_alloc_1           0x0804026f   Thumb Code     0  libshutdown2.o(.ARM.Collect$$libshutdown$$0000000B)
    __rt_entry                               0x08040271   Thumb Code     0  rtentry.o(.ARM.Collect$$rtentry$$00000000)
    __rt_entry_presh_1                       0x08040271   Thumb Code     0  rtentry2.o(.ARM.Collect$$rtentry$$00000002)
    __rt_entry_sh                            0x08040271   Thumb Code     0  rtentry4.o(.ARM.Collect$$rtentry$$00000004)
    __rt_entry_li                            0x08040277   Thumb Code     0  rtentry2.o(.ARM.Collect$$rtentry$$0000000A)
    __rt_entry_postsh_1                      0x08040277   Thumb Code     0  rtentry2.o(.ARM.Collect$$rtentry$$00000009)
    __rt_entry_main                          0x0804027b   Thumb Code     0  rtentry2.o(.ARM.Collect$$rtentry$$0000000D)
    __rt_entry_postli_1                      0x0804027b   Thumb Code     0  rtentry2.o(.ARM.Collect$$rtentry$$0000000C)
    __rt_exit                                0x08040283   Thumb Code     0  rtexit.o(.ARM.Collect$$rtexit$$00000000)
    __rt_exit_ls                             0x08040285   Thumb Code     0  rtexit2.o(.ARM.Collect$$rtexit$$00000003)
    __rt_exit_prels_1                        0x08040285   Thumb Code     0  rtexit2.o(.ARM.Collect$$rtexit$$00000002)
    __rt_exit_exit                           0x08040289   Thumb Code     0  rtexit2.o(.ARM.Collect$$rtexit$$00000004)
    _maybe_terminate_alloc                   0x08040291   Thumb Code     0  maybetermalloc1.o(.emb_text)
    startup_watchdog                         0x08040295   Thumb Code   106  3g_watchdog.o(.text)
    feed_watchdog                            0x080402ff   Thumb Code     4  3g_watchdog.o(.text)
    startup_hw_watchdog_feeding_timer        0x08040303   Thumb Code    38  3g_watchdog.o(.text)
    startup_iwdg_feeding_timer               0x08040367   Thumb Code    42  3g_watchdog.o(.text)
    rt_init_thread_entry                     0x08040439   Thumb Code   228  application.o(.text)
    rt_application_init                      0x0804051d   Thumb Code    36  application.o(.text)
    bootsh_set_device                        0x08040601   Thumb Code    98  bootcfg.o(.text)
    bootsh_show_menu                         0x08040663   Thumb Code  1190  bootcfg.o(.text)
    _show_cfg                                0x08040b09   Thumb Code   114  bootcfg.o(.text)
    _ipmkgw_process                          0x08040b7b   Thumb Code   138  bootcfg.o(.text)
    _delayid_process                         0x08040c05   Thumb Code    64  bootcfg.o(.text)
    save_configuration                       0x08040c45   Thumb Code    42  bootcfg.o(.text)
    _save_configuration                      0x08040c6f   Thumb Code    14  bootcfg.o(.text)
    _reboot_process                          0x08040c7d   Thumb Code    28  bootcfg.o(.text)
    _ipmode_process                          0x08040c99   Thumb Code    76  bootcfg.o(.text)
    _help_process                            0x08040ce5   Thumb Code    14  bootcfg.o(.text)
    bootsh_run_line                          0x08040cf3   Thumb Code   186  bootcfg.o(.text)
    bootsh_init                              0x08040dad   Thumb Code    50  bootcfg.o(.text)
    _get_flashparam                          0x08040ddf   Thumb Code    26  bootcfg.o(.text)
    _verify_flashparam                       0x08040df9   Thumb Code    58  bootcfg.o(.text)
    get_bootparam                            0x08040e33   Thumb Code   152  bootcfg.o(.text)
    bootsh_thread_entry                      0x08040ecb   Thumb Code   886  bootcfg.o(.text)
    start_boot_work                          0x08041241   Thumb Code    64  bootcfg.o(.text)
    get_sys_cfg                              0x08041281   Thumb Code    18  bootcfg.o(.text)
    set_sys_cfg                              0x08041293   Thumb Code    24  bootcfg.o(.text)
    num_bcd2char                             0x0804136d   Thumb Code    60  bsmac_parser.o(.text)
    num_term_to_str                          0x080413a9   Thumb Code    80  bsmac_parser.o(.text)
    bsmac_build_packet                       0x080413f9   Thumb Code   212  bsmac_parser.o(.text)
    bsmac_send_packet                        0x080414cd   Thumb Code    84  bsmac_parser.o(.text)
    bsmac_send_ack                           0x08041521   Thumb Code    76  bsmac_parser.o(.text)
    bsmac_parse_local_protocol               0x0804156d   Thumb Code   238  bsmac_parser.o(.text)
    bsmac_parse_rx                           0x0804165b   Thumb Code   918  bsmac_parser.o(.text)
    bsmac_reset_gpio_init                    0x08041b13   Thumb Code    50  bsmac_parser.o(.text)
    bsmac_led_init                           0x08041b45   Thumb Code    50  bsmac_parser.o(.text)
    bsmac_set_device                         0x08041c55   Thumb Code   388  bsmac_parser.o(.text)
    bsmac_init                               0x08041dd9   Thumb Code   110  bsmac_parser.o(.text)
    bsmac_thread_entry                       0x08041e47   Thumb Code   302  bsmac_parser.o(.text)
    bsmac_get_link_status                    0x08041f75   Thumb Code    20  bsmac_parser.o(.text)
    bsmac_get_peer_addr                      0x08041f89   Thumb Code    20  bsmac_parser.o(.text)
    bsmac_send_live                          0x08041f9d   Thumb Code    94  bsmac_parser.o(.text)
    bsmac_search_phone_nwk                   0x08041ffb   Thumb Code    64  bsmac_parser.o(.text)
    bsmac_search_idle_phone_nwk              0x0804203b   Thumb Code    62  bsmac_parser.o(.text)
    start_bsmac_work                         0x08042079   Thumb Code    64  bsmac_parser.o(.text)
    stop_bsmac_work                          0x080420b9   Thumb Code    52  bsmac_parser.o(.text)
    init_sys_status_indicator_lamps          0x08042249   Thumb Code    70  led_indicator.o(.text)
    light_up_sys_running_indicator           0x0804228f   Thumb Code     8  led_indicator.o(.text)
    light_off_sys_running_indicator          0x08042297   Thumb Code     8  led_indicator.o(.text)
    light_up_modbus_data_indicator           0x0804229f   Thumb Code     8  led_indicator.o(.text)
    light_off_modbus_data_indicator          0x080422a7   Thumb Code     8  led_indicator.o(.text)
    light_up_rssi_modules_data_indicator     0x080422af   Thumb Code    10  led_indicator.o(.text)
    light_off_rssi_modules_data_indicator    0x080422b9   Thumb Code    10  led_indicator.o(.text)
    hook_system_running_state                0x080422c3   Thumb Code     8  led_indicator.o(.text)
    startup_sys_running_state_lamp_timer     0x080422cd   Thumb Code    34  led_indicator.o(.text)
    ldata_state_init                         0x0804231d   Thumb Code     8  location_data.o(.text)
    dump_location_data                       0x08042325   Thumb Code   196  location_data.o(.text)
    load_location_data                       0x080423e9   Thumb Code   192  location_data.o(.text)
    _mbus_set_device                         0x08043147   Thumb Code   112  mbus_app.o(.text)
    init_mbus_msg_queue                      0x080431b7   Thumb Code    50  mbus_app.o(.text)
    mbus_thread_entry                        0x080431e9   Thumb Code   210  mbus_app.o(.text)
    start_modbus_work                        0x080432bb   Thumb Code    66  mbus_app.o(.text)
    stop_modbus_work                         0x080432fd   Thumb Code    54  mbus_app.o(.text)
    msg_analyser_register                    0x08043a65   Thumb Code    26  msg_center.o(.text)
    msg_analyser_deregister                  0x08043a7f   Thumb Code    20  msg_center.o(.text)
    msg_analyser_entry                       0x08043a93   Thumb Code    56  msg_center.o(.text)
    start_msg_analyser_work                  0x08043acb   Thumb Code    60  msg_center.o(.text)
    net_report_restart_msg                   0x08043bc5   Thumb Code    78  net_app.o(.text)
    net_report_running_state_msg             0x08043c13   Thumb Code    84  net_app.o(.text)
    app_display_ipaddr                       0x08043c67   Thumb Code    24  net_app.o(.text)
    _net_recv_work_thread                    0x080441c5   Thumb Code    18  net_app.o(.text)
    net_send_normal_running_msg              0x080443a1   Thumb Code   246  net_app.o(.text)
    _net_send_work_thread                    0x08044497   Thumb Code    22  net_app.o(.text)
    syn_time                                 0x080444ad   Thumb Code   430  net_app.o(.text)
    start_net_work                           0x08044d91   Thumb Code   236  net_app.o(.text)
    assert_failed                            0x080451a9   Thumb Code    28  startup.o(.text)
    set_flash_read_protection                0x080451c5   Thumb Code    54  startup.o(.text)
    rtthread_startup                         0x080451fb   Thumb Code    58  startup.o(.text)
    main                                     0x08045235   Thumb Code    18  startup.o(.text)
    SystemInit                               0x080452c9   Thumb Code    60  system_stm32f2xx.o(.text)
    SystemCoreClockUpdate                    0x08045305   Thumb Code   108  system_stm32f2xx.o(.text)
    read_upgrade_flag                        0x08045425   Thumb Code   102  upgrade_flag.o(.text)
    write_upgrade_flag                       0x0804548b   Thumb Code   102  upgrade_flag.o(.text)
    set_need_upgrade_flag                    0x080454f1   Thumb Code    16  upgrade_flag.o(.text)
    set_in_upgrade_flag                      0x08045501   Thumb Code    20  upgrade_flag.o(.text)
    set_upgrade_complete_flag                0x08045515   Thumb Code    20  upgrade_flag.o(.text)
    clear_upgrade_flag                       0x08045529   Thumb Code    18  upgrade_flag.o(.text)
    is_upgrade_needed                        0x0804553b   Thumb Code    38  upgrade_flag.o(.text)
    is_in_upgrade                            0x08045561   Thumb Code    18  upgrade_flag.o(.text)
    is_upgrade_complete                      0x08045573   Thumb Code    22  upgrade_flag.o(.text)
    NVIC_Configuration                       0x08045629   Thumb Code    24  board.o(.text)
    SysTick_Handler                          0x08045641   Thumb Code    18  board.o(.text)
    rt_hw_tick_get_millisecond               0x08045653   Thumb Code    26  board.o(.text)
    rt_hw_tick_get_microsecond               0x0804566d   Thumb Code    42  board.o(.text)
    fsmc_gpio_init                           0x08045697   Thumb Code   530  board.o(.text)
    rt_hw_board_init                         0x080458a9   Thumb Code   130  board.o(.text)
    rt_hw_board_reboot                       0x0804592b   Thumb Code    30  board.o(.text)
    rt_platform_init                         0x08045ad9   Thumb Code    40  platform.o(.text)
    USART1_IRQHandler                        0x08045cd1   Thumb Code    66  usart.o(.text)
    USART2_IRQHandler                        0x08045d13   Thumb Code    68  usart.o(.text)
    USART3_IRQHandler                        0x08045d57   Thumb Code    68  usart.o(.text)
    UART4_IRQHandler                         0x08045d9b   Thumb Code    68  usart.o(.text)
    UART5_IRQHandler                         0x08045ddf   Thumb Code    68  usart.o(.text)
    rt_hw_usart_init                         0x08045f11   Thumb Code   408  usart.o(.text)
    NMI_Handler                              0x0804616d   Thumb Code     2  stm32f2xx_it.o(.text)
    MemManage_Handler                        0x0804616f   Thumb Code     2  stm32f2xx_it.o(.text)
    BusFault_Handler                         0x08046171   Thumb Code     2  stm32f2xx_it.o(.text)
    UsageFault_Handler                       0x08046173   Thumb Code     2  stm32f2xx_it.o(.text)
    SVC_Handler                              0x08046175   Thumb Code     2  stm32f2xx_it.o(.text)
    DebugMon_Handler                         0x08046177   Thumb Code     2  stm32f2xx_it.o(.text)
    key_handler                              0x08046179   Thumb Code     2  stm32f2xx_it.o(.text)
    EXTI9_5_IRQHandler                       0x0804617b   Thumb Code    96  stm32f2xx_it.o(.text)
    GetSector                                0x080461dd   Thumb Code   146  stm32_flash.o(.text)
    flash_read                               0x0804626f   Thumb Code    66  stm32_flash.o(.text)
    flash_save                               0x080462b1   Thumb Code   162  stm32_flash.o(.text)
    ETH_DeInit                               0x08046385   Thumb Code    24  stm32f2xx_eth.o(.text)
    ETH_Init                                 0x0804639d   Thumb Code  1404  stm32f2xx_eth.o(.text)
    ETH_StructInit                           0x08046919   Thumb Code   136  stm32f2xx_eth.o(.text)
    ETH_DMAReceptionCmd                      0x080469a1   Thumb Code    40  stm32f2xx_eth.o(.text)
    ETH_DMATransmissionCmd                   0x080469c9   Thumb Code    40  stm32f2xx_eth.o(.text)
    ETH_MACReceptionCmd                      0x080469f1   Thumb Code    40  stm32f2xx_eth.o(.text)
    ETH_FlushTransmitFIFO                    0x08046a19   Thumb Code    12  stm32f2xx_eth.o(.text)
    ETH_MACTransmissionCmd                   0x08046a25   Thumb Code    40  stm32f2xx_eth.o(.text)
    ETH_Start                                0x08046a4d   Thumb Code    32  stm32f2xx_eth.o(.text)
    ETH_HandleTxPkt                          0x08046a6d   Thumb Code    98  stm32f2xx_eth.o(.text)
    ETH_HandleRxPkt                          0x08046acf   Thumb Code   112  stm32f2xx_eth.o(.text)
    ETH_GetDMARxDescFrameLength              0x08046b3f   Thumb Code     8  stm32f2xx_eth.o(.text)
    ETH_GetRxPktSize                         0x08046b47   Thumb Code    28  stm32f2xx_eth.o(.text)
    ETH_DropRxPkt                            0x08046b63   Thumb Code    44  stm32f2xx_eth.o(.text)
    ETH_EnhancedDescriptorCmd                0x08046b8f   Thumb Code    40  stm32f2xx_eth.o(.text)
    ETH_ReadPHYRegister                      0x08046bb7   Thumb Code   164  stm32f2xx_eth.o(.text)
    ETH_WritePHYRegister                     0x08046c5b   Thumb Code   114  stm32f2xx_eth.o(.text)
    ETH_PHYLoopBackCmd                       0x08046ccd   Thumb Code    76  stm32f2xx_eth.o(.text)
    ETH_GetFlowControlBusyStatus             0x08046d19   Thumb Code    14  stm32f2xx_eth.o(.text)
    ETH_InitiatePauseControlFrame            0x08046d27   Thumb Code    12  stm32f2xx_eth.o(.text)
    ETH_BackPressureActivationCmd            0x08046d33   Thumb Code    40  stm32f2xx_eth.o(.text)
    ETH_GetMACFlagStatus                     0x08046d5b   Thumb Code    54  stm32f2xx_eth.o(.text)
    ETH_GetMACITStatus                       0x08046d91   Thumb Code    54  stm32f2xx_eth.o(.text)
    ETH_MACITConfig                          0x08046dc7   Thumb Code    60  stm32f2xx_eth.o(.text)
    ETH_MACAddressConfig                     0x08046e03   Thumb Code    54  stm32f2xx_eth.o(.text)
    ETH_GetMACAddress                        0x08046e39   Thumb Code    62  stm32f2xx_eth.o(.text)
    ETH_MACAddressPerfectFilterCmd           0x08046e77   Thumb Code    70  stm32f2xx_eth.o(.text)
    ETH_MACAddressFilterConfig               0x08046ebd   Thumb Code    70  stm32f2xx_eth.o(.text)
    ETH_MACAddressMaskBytesFilterConfig      0x08046f03   Thumb Code    98  stm32f2xx_eth.o(.text)
    ETH_DMATxDescChainInit                   0x08046f65   Thumb Code    62  stm32f2xx_eth.o(.text)
    ETH_DMATxDescRingInit                    0x08046fa3   Thumb Code    60  stm32f2xx_eth.o(.text)
    ETH_GetDMATxDescFlagStatus               0x08046fdf   Thumb Code   184  stm32f2xx_eth.o(.text)
    ETH_GetDMATxDescCollisionCount           0x08047097   Thumb Code     8  stm32f2xx_eth.o(.text)
    ETH_SetDMATxDescOwnBit                   0x0804709f   Thumb Code    10  stm32f2xx_eth.o(.text)
    ETH_DMATxDescTransmitITConfig            0x080470a9   Thumb Code    40  stm32f2xx_eth.o(.text)
    ETH_DMATxDescFrameSegmentConfig          0x080470d1   Thumb Code    38  stm32f2xx_eth.o(.text)
    ETH_DMATxDescChecksumInsertionConfig     0x080470f7   Thumb Code    46  stm32f2xx_eth.o(.text)
    ETH_DMATxDescCRCCmd                      0x08047125   Thumb Code    40  stm32f2xx_eth.o(.text)
    ETH_DMATxDescEndOfRingCmd                0x0804714d   Thumb Code    40  stm32f2xx_eth.o(.text)
    ETH_DMATxDescSecondAddressChainedCmd     0x08047175   Thumb Code    40  stm32f2xx_eth.o(.text)
    ETH_DMATxDescShortFramePaddingCmd        0x0804719d   Thumb Code    40  stm32f2xx_eth.o(.text)
    ETH_DMATxDescTimeStampCmd                0x080471c5   Thumb Code    40  stm32f2xx_eth.o(.text)
    ETH_DMATxDescBufferSizeConfig            0x080471ed   Thumb Code    60  stm32f2xx_eth.o(.text)
    ETH_DMARxDescChainInit                   0x08047229   Thumb Code    68  stm32f2xx_eth.o(.text)
    ETH_DMARxDescRingInit                    0x0804726d   Thumb Code    76  stm32f2xx_eth.o(.text)
    ETH_GetDMARxDescFlagStatus               0x080472b9   Thumb Code   124  stm32f2xx_eth.o(.text)
    ETH_GetDMAPTPRxDescExtendedFlagStatus    0x08047335   Thumb Code    74  stm32f2xx_eth.o(.text)
    ETH_SetDMARxDescOwnBit                   0x0804737f   Thumb Code    10  stm32f2xx_eth.o(.text)
    ETH_DMARxDescReceiveITConfig             0x08047389   Thumb Code    40  stm32f2xx_eth.o(.text)
    ETH_DMARxDescEndOfRingCmd                0x080473b1   Thumb Code    40  stm32f2xx_eth.o(.text)
    ETH_DMARxDescSecondAddressChainedCmd     0x080473d9   Thumb Code    40  stm32f2xx_eth.o(.text)
    ETH_GetDMARxDescBufferSize               0x08047401   Thumb Code    38  stm32f2xx_eth.o(.text)
    ETH_SoftwareReset                        0x08047427   Thumb Code    12  stm32f2xx_eth.o(.text)
    ETH_GetSoftwareResetStatus               0x08047433   Thumb Code    14  stm32f2xx_eth.o(.text)
    ETH_GetDMAFlagStatus                     0x08047441   Thumb Code   124  stm32f2xx_eth.o(.text)
    ETH_DMAClearFlag                         0x080474bd   Thumb Code    30  stm32f2xx_eth.o(.text)
    ETH_GetDMAITStatus                       0x080474db   Thumb Code   124  stm32f2xx_eth.o(.text)
    ETH_DMAClearITPendingBit                 0x08047557   Thumb Code    30  stm32f2xx_eth.o(.text)
    ETH_GetTransmitProcessState              0x08047575   Thumb Code    10  stm32f2xx_eth.o(.text)
    ETH_GetReceiveProcessState               0x0804757f   Thumb Code    10  stm32f2xx_eth.o(.text)
    ETH_GetFlushTransmitFIFOStatus           0x08047589   Thumb Code    14  stm32f2xx_eth.o(.text)
    ETH_DMAITConfig                          0x08047597   Thumb Code    60  stm32f2xx_eth.o(.text)
    ETH_GetDMAOverflowStatus                 0x080475d3   Thumb Code    44  stm32f2xx_eth.o(.text)
    ETH_GetRxOverflowMissedFrameCounter      0x080475ff   Thumb Code    22  stm32f2xx_eth.o(.text)
    ETH_GetBufferUnavailableMissedFrameCounter 0x08047615   Thumb Code     8  stm32f2xx_eth.o(.text)
    ETH_GetCurrentTxDescStartAddress         0x0804761d   Thumb Code     6  stm32f2xx_eth.o(.text)
    ETH_GetCurrentRxDescStartAddress         0x08047623   Thumb Code     6  stm32f2xx_eth.o(.text)
    ETH_GetCurrentTxBufferAddress            0x08047629   Thumb Code     6  stm32f2xx_eth.o(.text)
    ETH_GetCurrentRxBufferAddress            0x0804762f   Thumb Code     6  stm32f2xx_eth.o(.text)
    ETH_ResumeDMATransmission                0x08047635   Thumb Code     8  stm32f2xx_eth.o(.text)
    ETH_ResumeDMAReception                   0x0804763d   Thumb Code     8  stm32f2xx_eth.o(.text)
    ETH_SetReceiveWatchdogTimer              0x08047645   Thumb Code     6  stm32f2xx_eth.o(.text)
    ETH_ResetWakeUpFrameFilterRegisterPointer 0x0804764b   Thumb Code    12  stm32f2xx_eth.o(.text)
    ETH_SetWakeUpFrameFilterRegister         0x08047657   Thumb Code    18  stm32f2xx_eth.o(.text)
    ETH_GlobalUnicastWakeUpCmd               0x08047669   Thumb Code    40  stm32f2xx_eth.o(.text)
    ETH_GetPMTFlagStatus                     0x08047691   Thumb Code    40  stm32f2xx_eth.o(.text)
    ETH_WakeUpFrameDetectionCmd              0x080476b9   Thumb Code    40  stm32f2xx_eth.o(.text)
    ETH_MagicPacketDetectionCmd              0x080476e1   Thumb Code    40  stm32f2xx_eth.o(.text)
    ETH_PowerDownCmd                         0x08047709   Thumb Code    40  stm32f2xx_eth.o(.text)
    ETH_MMCCounterFullPreset                 0x08047731   Thumb Code    12  stm32f2xx_eth.o(.text)
    ETH_MMCCounterHalfPreset                 0x0804773d   Thumb Code    20  stm32f2xx_eth.o(.text)
    ETH_MMCCounterFreezeCmd                  0x08047751   Thumb Code    46  stm32f2xx_eth.o(.text)
    ETH_MMCResetOnReadCmd                    0x0804777f   Thumb Code    46  stm32f2xx_eth.o(.text)
    ETH_MMCCounterRolloverCmd                0x080477ad   Thumb Code    44  stm32f2xx_eth.o(.text)
    ETH_MMCCountersReset                     0x080477d9   Thumb Code    12  stm32f2xx_eth.o(.text)
    ETH_MMCITConfig                          0x080477e5   Thumb Code    92  stm32f2xx_eth.o(.text)
    ETH_GetMMCITStatus                       0x08047841   Thumb Code    94  stm32f2xx_eth.o(.text)
    ETH_GetMMCRegister                       0x0804789f   Thumb Code    86  stm32f2xx_eth.o(.text)
    ETH_PTPNodeClockTypeConfig               0x080478f5   Thumb Code    52  stm32f2xx_eth.o(.text)
    ETH_PTPSnapshotCmd                       0x08047929   Thumb Code    84  stm32f2xx_eth.o(.text)
    ETH_PTPPacketSnoopingV2FormatCmd         0x0804797d   Thumb Code    38  stm32f2xx_eth.o(.text)
    ETH_PTPSubSecondRolloverCmd              0x080479a3   Thumb Code    38  stm32f2xx_eth.o(.text)
    ETH_EnablePTPTimeStampAddend             0x080479c9   Thumb Code    12  stm32f2xx_eth.o(.text)
    ETH_EnablePTPTimeStampInterruptTrigger   0x080479d5   Thumb Code    12  stm32f2xx_eth.o(.text)
    ETH_EnablePTPTimeStampUpdate             0x080479e1   Thumb Code    12  stm32f2xx_eth.o(.text)
    ETH_InitializePTPTimeStamp               0x080479ed   Thumb Code    40  stm32f2xx_eth.o(.text)
    ETH_PTPUpdateMethodConfig                0x08047a15   Thumb Code    38  stm32f2xx_eth.o(.text)
    ETH_PTPTimeStampCmd                      0x08047a3b   Thumb Code    38  stm32f2xx_eth.o(.text)
    ETH_GetPTPFlagStatus                     0x08047a61   Thumb Code    66  stm32f2xx_eth.o(.text)
    ETH_SetPTPSubSecondIncrement             0x08047aa3   Thumb Code    26  stm32f2xx_eth.o(.text)
    ETH_SetPTPTimeStampUpdate                0x08047abd   Thumb Code    60  stm32f2xx_eth.o(.text)
    ETH_SetPTPTimeStampAddend                0x08047af9   Thumb Code     8  stm32f2xx_eth.o(.text)
    ETH_SetPTPTargetTime                     0x08047b01   Thumb Code    12  stm32f2xx_eth.o(.text)
    ETH_GetPTPRegister                       0x08047b0d   Thumb Code    76  stm32f2xx_eth.o(.text)
    ETH_DMAPTPTxDescChainInit                0x08047b59   Thumb Code    62  stm32f2xx_eth.o(.text)
    ETH_DMAPTPRxDescChainInit                0x08047b97   Thumb Code    68  stm32f2xx_eth.o(.text)
    ETH_HandlePTPTxPkt                       0x08047bdb   Thumb Code   150  stm32f2xx_eth.o(.text)
    ETH_HandlePTPRxPkt                       0x08047c71   Thumb Code   124  stm32f2xx_eth.o(.text)
    ETH_IRQHandler                           0x08047ced   Thumb Code   164  stm32f2xx_eth.o(.text)
    rt_stm32_eth_tx                          0x08047ea1   Thumb Code   166  stm32f2xx_eth.o(.text)
    rt_stm32_eth_rx                          0x08047f47   Thumb Code   134  stm32f2xx_eth.o(.text)
    rt_hw_stm32_eth_init                     0x0804816d   Thumb Code   362  stm32f2xx_eth.o(.text)
    stm32_spi_register                       0x080484b9   Thumb Code    72  stm32f20x_40x_spi.o(.text)
    w25qxx_init                              0x08048647   Thumb Code   330  spi_flash_w25qxx.o(.text)
    rt_hw_rtc_init                           0x08048ca9   Thumb Code   104  stm32f2_rtc.o(.text)
    NVIC_PriorityGroupConfig                 0x08048e35   Thumb Code    52  misc.o(.text)
    NVIC_Init                                0x08048e69   Thumb Code   140  misc.o(.text)
    NVIC_SetVectorTable                      0x08048ef5   Thumb Code    54  misc.o(.text)
    NVIC_SystemLPConfig                      0x08048f2b   Thumb Code    58  misc.o(.text)
    SysTick_CLKSourceConfig                  0x08048f65   Thumb Code    40  misc.o(.text)
    EXTI_DeInit                              0x08048fe1   Thumb Code    28  stm32f2xx_exti.o(.text)
    EXTI_Init                                0x08048ffd   Thumb Code   180  stm32f2xx_exti.o(.text)
    EXTI_StructInit                          0x080490b1   Thumb Code    14  stm32f2xx_exti.o(.text)
    EXTI_GenerateSWInterrupt                 0x080490bf   Thumb Code    30  stm32f2xx_exti.o(.text)
    EXTI_GetFlagStatus                       0x080490dd   Thumb Code   152  stm32f2xx_exti.o(.text)
    EXTI_ClearFlag                           0x08049175   Thumb Code    26  stm32f2xx_exti.o(.text)
    EXTI_GetITStatus                         0x0804918f   Thumb Code   162  stm32f2xx_exti.o(.text)
    EXTI_ClearITPendingBit                   0x08049231   Thumb Code    28  stm32f2xx_exti.o(.text)
    FLASH_SetLatency                         0x08049259   Thumb Code    48  stm32f2xx_flash.o(.text)
    FLASH_PrefetchBufferCmd                  0x08049289   Thumb Code    36  stm32f2xx_flash.o(.text)
    FLASH_InstructionCacheCmd                0x080492ad   Thumb Code    36  stm32f2xx_flash.o(.text)
    FLASH_DataCacheCmd                       0x080492d1   Thumb Code    36  stm32f2xx_flash.o(.text)
    FLASH_InstructionCacheReset              0x080492f5   Thumb Code    12  stm32f2xx_flash.o(.text)
    FLASH_DataCacheReset                     0x08049301   Thumb Code    12  stm32f2xx_flash.o(.text)
    FLASH_Unlock                             0x0804930d   Thumb Code    24  stm32f2xx_flash.o(.text)
    FLASH_Lock                               0x08049325   Thumb Code    14  stm32f2xx_flash.o(.text)
    FLASH_GetStatus                          0x08049333   Thumb Code    48  stm32f2xx_flash.o(.text)
    FLASH_WaitForLastOperation               0x08049363   Thumb Code    30  stm32f2xx_flash.o(.text)
    FLASH_EraseSector                        0x08049381   Thumb Code   180  stm32f2xx_flash.o(.text)
    FLASH_EraseAllSectors                    0x08049435   Thumb Code   110  stm32f2xx_flash.o(.text)
    FLASH_ProgramDoubleWord                  0x080494a3   Thumb Code    98  stm32f2xx_flash.o(.text)
    FLASH_ProgramWord                        0x08049505   Thumb Code    90  stm32f2xx_flash.o(.text)
    FLASH_ProgramHalfWord                    0x0804955f   Thumb Code    90  stm32f2xx_flash.o(.text)
    FLASH_ProgramByte                        0x080495b9   Thumb Code    86  stm32f2xx_flash.o(.text)
    FLASH_OB_Unlock                          0x0804960f   Thumb Code    24  stm32f2xx_flash.o(.text)
    FLASH_OB_Lock                            0x08049627   Thumb Code    14  stm32f2xx_flash.o(.text)
    FLASH_OB_WRPConfig                       0x08049635   Thumb Code    98  stm32f2xx_flash.o(.text)
    FLASH_OB_RDPConfig                       0x08049697   Thumb Code    36  stm32f2xx_flash.o(.text)
    FLASH_OB_UserConfig                      0x080496bb   Thumb Code    84  stm32f2xx_flash.o(.text)
    FLASH_OB_BORConfig                       0x0804970f   Thumb Code    48  stm32f2xx_flash.o(.text)
    FLASH_OB_Launch                          0x0804973f   Thumb Code    14  stm32f2xx_flash.o(.text)
    FLASH_OB_GetUser                         0x0804974d   Thumb Code    12  stm32f2xx_flash.o(.text)
    FLASH_OB_GetWRP                          0x08049759   Thumb Code     8  stm32f2xx_flash.o(.text)
    FLASH_OB_GetRDP                          0x08049761   Thumb Code    14  stm32f2xx_flash.o(.text)
    FLASH_OB_GetBOR                          0x0804976f   Thumb Code    12  stm32f2xx_flash.o(.text)
    FLASH_ITConfig                           0x0804977b   Thumb Code    58  stm32f2xx_flash.o(.text)
    FLASH_GetFlagStatus                      0x080497b5   Thumb Code    62  stm32f2xx_flash.o(.text)
    FLASH_ClearFlag                          0x080497f3   Thumb Code    30  stm32f2xx_flash.o(.text)
    GPIO_DeInit                              0x08049819   Thumb Code   254  stm32f2xx_gpio.o(.text)
    GPIO_Init                                0x08049917   Thumb Code   290  stm32f2xx_gpio.o(.text)
    GPIO_StructInit                          0x08049a39   Thumb Code    18  stm32f2xx_gpio.o(.text)
    GPIO_PinLockConfig                       0x08049a4b   Thumb Code   110  stm32f2xx_gpio.o(.text)
    GPIO_ReadInputDataBit                    0x08049ab9   Thumb Code   174  stm32f2xx_gpio.o(.text)
    GPIO_ReadInputData                       0x08049b67   Thumb Code    74  stm32f2xx_gpio.o(.text)
    GPIO_ReadOutputDataBit                   0x08049bb1   Thumb Code   216  stm32f2xx_gpio.o(.text)
    GPIO_ReadOutputData                      0x08049c89   Thumb Code    74  stm32f2xx_gpio.o(.text)
    GPIO_SetBits                             0x08049cd3   Thumb Code    86  stm32f2xx_gpio.o(.text)
    GPIO_ResetBits                           0x08049d29   Thumb Code    86  stm32f2xx_gpio.o(.text)
    GPIO_WriteBit                            0x08049d7f   Thumb Code   186  stm32f2xx_gpio.o(.text)
    GPIO_Write                               0x08049e39   Thumb Code    74  stm32f2xx_gpio.o(.text)
    GPIO_ToggleBits                          0x08049e83   Thumb Code    78  stm32f2xx_gpio.o(.text)
    GPIO_PinAFConfig                         0x08049ed1   Thumb Code   242  stm32f2xx_gpio.o(.text)
    IWDG_WriteAccessCmd                      0x08049fed   Thumb Code    28  stm32f2xx_iwdg.o(.text)
    IWDG_SetPrescaler                        0x0804a009   Thumb Code    44  stm32f2xx_iwdg.o(.text)
    IWDG_SetReload                           0x0804a035   Thumb Code    24  stm32f2xx_iwdg.o(.text)
    IWDG_ReloadCounter                       0x0804a04d   Thumb Code    10  stm32f2xx_iwdg.o(.text)
    IWDG_Enable                              0x0804a057   Thumb Code    10  stm32f2xx_iwdg.o(.text)
    IWDG_GetFlagStatus                       0x0804a061   Thumb Code    36  stm32f2xx_iwdg.o(.text)
    PWR_DeInit                               0x0804a08d   Thumb Code    24  stm32f2xx_pwr.o(.text)
    PWR_BackupAccessCmd                      0x0804a0a5   Thumb Code    24  stm32f2xx_pwr.o(.text)
    PWR_PVDLevelConfig                       0x0804a0bd   Thumb Code    56  stm32f2xx_pwr.o(.text)
    PWR_PVDCmd                               0x0804a0f5   Thumb Code    24  stm32f2xx_pwr.o(.text)
    PWR_WakeUpPinCmd                         0x0804a10d   Thumb Code    26  stm32f2xx_pwr.o(.text)
    PWR_BackupRegulatorCmd                   0x0804a127   Thumb Code    28  stm32f2xx_pwr.o(.text)
    PWR_FlashPowerDownCmd                    0x0804a143   Thumb Code    26  stm32f2xx_pwr.o(.text)
    PWR_EnterSTOPMode                        0x0804a15d   Thumb Code    82  stm32f2xx_pwr.o(.text)
    PWR_EnterSTANDBYMode                     0x0804a1af   Thumb Code    32  stm32f2xx_pwr.o(.text)
    PWR_GetFlagStatus                        0x0804a1cf   Thumb Code    46  stm32f2xx_pwr.o(.text)
    PWR_ClearFlag                            0x0804a1fd   Thumb Code    34  stm32f2xx_pwr.o(.text)
    RCC_DeInit                               0x0804a231   Thumb Code    48  stm32f2xx_rcc.o(.text)
    RCC_HSEConfig                            0x0804a261   Thumb Code    34  stm32f2xx_rcc.o(.text)
    RCC_GetFlagStatus                        0x0804a283   Thumb Code   112  stm32f2xx_rcc.o(.text)
    RCC_WaitForHSEStartUp                    0x0804a2f3   Thumb Code    44  stm32f2xx_rcc.o(.text)
    RCC_AdjustHSICalibrationValue            0x0804a31f   Thumb Code    34  stm32f2xx_rcc.o(.text)
    RCC_HSICmd                               0x0804a341   Thumb Code    26  stm32f2xx_rcc.o(.text)
    RCC_LSEConfig                            0x0804a35b   Thumb Code    52  stm32f2xx_rcc.o(.text)
    RCC_LSICmd                               0x0804a38f   Thumb Code    26  stm32f2xx_rcc.o(.text)
    RCC_PLLConfig                            0x0804a3a9   Thumb Code   140  stm32f2xx_rcc.o(.text)
    RCC_PLLCmd                               0x0804a435   Thumb Code    26  stm32f2xx_rcc.o(.text)
    RCC_PLLI2SConfig                         0x0804a44f   Thumb Code    52  stm32f2xx_rcc.o(.text)
    RCC_PLLI2SCmd                            0x0804a483   Thumb Code    26  stm32f2xx_rcc.o(.text)
    RCC_ClockSecuritySystemCmd               0x0804a49d   Thumb Code    26  stm32f2xx_rcc.o(.text)
    RCC_MCO1Config                           0x0804a4b7   Thumb Code    90  stm32f2xx_rcc.o(.text)
    RCC_MCO2Config                           0x0804a511   Thumb Code    90  stm32f2xx_rcc.o(.text)
    RCC_SYSCLKConfig                         0x0804a56b   Thumb Code    40  stm32f2xx_rcc.o(.text)
    RCC_GetSYSCLKSource                      0x0804a593   Thumb Code    12  stm32f2xx_rcc.o(.text)
    RCC_HCLKConfig                           0x0804a59f   Thumb Code    64  stm32f2xx_rcc.o(.text)
    RCC_PCLK1Config                          0x0804a5df   Thumb Code    86  stm32f2xx_rcc.o(.text)
    RCC_PCLK2Config                          0x0804a635   Thumb Code    56  stm32f2xx_rcc.o(.text)
    RCC_GetClocksFreq                        0x0804a66d   Thumb Code   132  stm32f2xx_rcc.o(.text)
    RCC_RTCCLKConfig                         0x0804a6f1   Thumb Code   246  stm32f2xx_rcc.o(.text)
    RCC_RTCCLKCmd                            0x0804a7e7   Thumb Code    26  stm32f2xx_rcc.o(.text)
    RCC_BackupResetCmd                       0x0804a801   Thumb Code    28  stm32f2xx_rcc.o(.text)
    RCC_I2SCLKConfig                         0x0804a81d   Thumb Code    26  stm32f2xx_rcc.o(.text)
    RCC_AHB1PeriphClockCmd                   0x0804a837   Thumb Code    58  stm32f2xx_rcc.o(.text)
    RCC_AHB2PeriphClockCmd                   0x0804a871   Thumb Code    58  stm32f2xx_rcc.o(.text)
    RCC_AHB3PeriphClockCmd                   0x0804a8ab   Thumb Code    56  stm32f2xx_rcc.o(.text)
    RCC_APB1PeriphClockCmd                   0x0804a8e3   Thumb Code    58  stm32f2xx_rcc.o(.text)
    RCC_APB2PeriphClockCmd                   0x0804a91d   Thumb Code    58  stm32f2xx_rcc.o(.text)
    RCC_AHB1PeriphResetCmd                   0x0804a957   Thumb Code    58  stm32f2xx_rcc.o(.text)
    RCC_AHB2PeriphResetCmd                   0x0804a991   Thumb Code    58  stm32f2xx_rcc.o(.text)
    RCC_AHB3PeriphResetCmd                   0x0804a9cb   Thumb Code    56  stm32f2xx_rcc.o(.text)
    RCC_APB1PeriphResetCmd                   0x0804aa03   Thumb Code   230  stm32f2xx_rcc.o(.text)
    RCC_APB2PeriphResetCmd                   0x0804aae9   Thumb Code    56  stm32f2xx_rcc.o(.text)
    RCC_AHB1PeriphClockLPModeCmd             0x0804ab21   Thumb Code    58  stm32f2xx_rcc.o(.text)
    RCC_AHB2PeriphClockLPModeCmd             0x0804ab5b   Thumb Code    58  stm32f2xx_rcc.o(.text)
    RCC_AHB3PeriphClockLPModeCmd             0x0804ab95   Thumb Code    56  stm32f2xx_rcc.o(.text)
    RCC_APB1PeriphClockLPModeCmd             0x0804abcd   Thumb Code    58  stm32f2xx_rcc.o(.text)
    RCC_APB2PeriphClockLPModeCmd             0x0804ac07   Thumb Code    58  stm32f2xx_rcc.o(.text)
    RCC_ITConfig                             0x0804ac41   Thumb Code    56  stm32f2xx_rcc.o(.text)
    RCC_ClearFlag                            0x0804ac79   Thumb Code    14  stm32f2xx_rcc.o(.text)
    RCC_GetITStatus                          0x0804ac87   Thumb Code    60  stm32f2xx_rcc.o(.text)
    RCC_ClearITPendingBit                    0x0804acc3   Thumb Code    28  stm32f2xx_rcc.o(.text)
    RTC_WaitForSynchro                       0x0804acf9   Thumb Code    68  stm32f2xx_rtc.o(.text)
    RTC_EnterInitMode                        0x0804ad3d   Thumb Code    58  stm32f2xx_rtc.o(.text)
    RTC_DeInit                               0x0804ad77   Thumb Code   142  stm32f2xx_rtc.o(.text)
    RTC_ExitInitMode                         0x0804ae05   Thumb Code    14  stm32f2xx_rtc.o(.text)
    RTC_Init                                 0x0804ae13   Thumb Code   126  stm32f2xx_rtc.o(.text)
    RTC_StructInit                           0x0804ae91   Thumb Code    14  stm32f2xx_rtc.o(.text)
    RTC_WriteProtectionCmd                   0x0804ae9f   Thumb Code    34  stm32f2xx_rtc.o(.text)
    RTC_RefClockCmd                          0x0804aec1   Thumb Code    74  stm32f2xx_rtc.o(.text)
    RTC_SetTime                              0x0804af0b   Thumb Code   326  stm32f2xx_rtc.o(.text)
    RTC_TimeStructInit                       0x0804b051   Thumb Code    12  stm32f2xx_rtc.o(.text)
    RTC_GetTime                              0x0804b05d   Thumb Code    86  stm32f2xx_rtc.o(.text)
    RTC_SetDate                              0x0804b0b3   Thumb Code   316  stm32f2xx_rtc.o(.text)
    RTC_DateStructInit                       0x0804b1ef   Thumb Code    14  stm32f2xx_rtc.o(.text)
    RTC_GetDate                              0x0804b1fd   Thumb Code    82  stm32f2xx_rtc.o(.text)
    RTC_SetAlarm                             0x0804b24f   Thumb Code   530  stm32f2xx_rtc.o(.text)
    RTC_AlarmStructInit                      0x0804b461   Thumb Code    20  stm32f2xx_rtc.o(.text)
    RTC_GetAlarm                             0x0804b475   Thumb Code   148  stm32f2xx_rtc.o(.text)
    RTC_AlarmCmd                             0x0804b509   Thumb Code   114  stm32f2xx_rtc.o(.text)
    RTC_WakeUpClockConfig                    0x0804b57b   Thumb Code    72  stm32f2xx_rtc.o(.text)
    RTC_SetWakeUpCounter                     0x0804b5c3   Thumb Code    44  stm32f2xx_rtc.o(.text)
    RTC_GetWakeUpCounter                     0x0804b5ef   Thumb Code    10  stm32f2xx_rtc.o(.text)
    RTC_WakeUpCmd                            0x0804b5f9   Thumb Code   104  stm32f2xx_rtc.o(.text)
    RTC_DayLightSavingConfig                 0x0804b661   Thumb Code    84  stm32f2xx_rtc.o(.text)
    RTC_GetStoreOperation                    0x0804b6b5   Thumb Code    12  stm32f2xx_rtc.o(.text)
    RTC_OutputConfig                         0x0804b6c1   Thumb Code    92  stm32f2xx_rtc.o(.text)
    RTC_CoarseCalibConfig                    0x0804b71d   Thumb Code    82  stm32f2xx_rtc.o(.text)
    RTC_CoarseCalibCmd                       0x0804b76f   Thumb Code    76  stm32f2xx_rtc.o(.text)
    RTC_CalibOutputCmd                       0x0804b7bb   Thumb Code    58  stm32f2xx_rtc.o(.text)
    RTC_TimeStampCmd                         0x0804b7f5   Thumb Code    80  stm32f2xx_rtc.o(.text)
    RTC_GetTimeStamp                         0x0804b845   Thumb Code   148  stm32f2xx_rtc.o(.text)
    RTC_TamperTriggerConfig                  0x0804b8d9   Thumb Code    74  stm32f2xx_rtc.o(.text)
    RTC_TamperCmd                            0x0804b923   Thumb Code    52  stm32f2xx_rtc.o(.text)
    RTC_WriteBackupRegister                  0x0804b957   Thumb Code   114  stm32f2xx_rtc.o(.text)
    RTC_ReadBackupRegister                   0x0804b9c9   Thumb Code   112  stm32f2xx_rtc.o(.text)
    RTC_TamperPinSelection                   0x0804ba39   Thumb Code    40  stm32f2xx_rtc.o(.text)
    RTC_TimeStampPinSelection                0x0804ba61   Thumb Code    40  stm32f2xx_rtc.o(.text)
    RTC_OutputTypeConfig                     0x0804ba89   Thumb Code    40  stm32f2xx_rtc.o(.text)
    RTC_ITConfig                             0x0804bab1   Thumb Code   100  stm32f2xx_rtc.o(.text)
    RTC_GetFlagStatus                        0x0804bb15   Thumb Code    94  stm32f2xx_rtc.o(.text)
    RTC_ClearFlag                            0x0804bb73   Thumb Code    50  stm32f2xx_rtc.o(.text)
    RTC_GetITStatus                          0x0804bba5   Thumb Code    90  stm32f2xx_rtc.o(.text)
    RTC_ClearITPendingBit                    0x0804bbff   Thumb Code    46  stm32f2xx_rtc.o(.text)
    SPI_I2S_DeInit                           0x0804bc65   Thumb Code    98  stm32f2xx_spi.o(.text)
    SPI_Init                                 0x0804bcc7   Thumb Code   270  stm32f2xx_spi.o(.text)
    I2S_Init                                 0x0804bdd5   Thumb Code   376  stm32f2xx_spi.o(.text)
    SPI_StructInit                           0x0804bf4d   Thumb Code    24  stm32f2xx_spi.o(.text)
    I2S_StructInit                           0x0804bf65   Thumb Code    18  stm32f2xx_spi.o(.text)
    SPI_Cmd                                  0x0804bf77   Thumb Code    68  stm32f2xx_spi.o(.text)
    I2S_Cmd                                  0x0804bfbb   Thumb Code    62  stm32f2xx_spi.o(.text)
    SPI_DataSizeConfig                       0x0804bff9   Thumb Code    68  stm32f2xx_spi.o(.text)
    SPI_BiDirectionalLineConfig              0x0804c03d   Thumb Code   114  stm32f2xx_spi.o(.text)
    SPI_NSSInternalSoftwareConfig            0x0804c0af   Thumb Code    80  stm32f2xx_spi.o(.text)
    SPI_SSOutputCmd                          0x0804c0ff   Thumb Code    68  stm32f2xx_spi.o(.text)
    SPI_TIModeCmd                            0x0804c143   Thumb Code    68  stm32f2xx_spi.o(.text)
    SPI_I2S_ReceiveData                      0x0804c187   Thumb Code    36  stm32f2xx_spi.o(.text)
    SPI_I2S_SendData                         0x0804c1ab   Thumb Code    38  stm32f2xx_spi.o(.text)
    SPI_CalculateCRC                         0x0804c1d1   Thumb Code    68  stm32f2xx_spi.o(.text)
    SPI_TransmitCRC                          0x0804c215   Thumb Code    42  stm32f2xx_spi.o(.text)
    SPI_GetCRC                               0x0804c23f   Thumb Code    58  stm32f2xx_spi.o(.text)
    SPI_GetCRCPolynomial                     0x0804c279   Thumb Code    36  stm32f2xx_spi.o(.text)
    SPI_I2S_DMACmd                           0x0804c29d   Thumb Code    82  stm32f2xx_spi.o(.text)
    SPI_I2S_ITConfig                         0x0804c2ef   Thumb Code    96  stm32f2xx_spi.o(.text)
    SPI_I2S_GetFlagStatus                    0x0804c34f   Thumb Code    96  stm32f2xx_spi.o(.text)
    SPI_I2S_ClearFlag                        0x0804c3af   Thumb Code    54  stm32f2xx_spi.o(.text)
    SPI_I2S_GetITStatus                      0x0804c3e5   Thumb Code   112  stm32f2xx_spi.o(.text)
    SPI_I2S_ClearITPendingBit                0x0804c455   Thumb Code    80  stm32f2xx_spi.o(.text)
    SYSCFG_DeInit                            0x0804c4a5   Thumb Code    24  stm32f2xx_syscfg.o(.text)
    SYSCFG_MemoryRemapConfig                 0x0804c4bd   Thumb Code    32  stm32f2xx_syscfg.o(.text)
    SYSCFG_EXTILineConfig                    0x0804c4dd   Thumb Code   152  stm32f2xx_syscfg.o(.text)
    SYSCFG_ETH_MediaInterfaceConfig          0x0804c575   Thumb Code    24  stm32f2xx_syscfg.o(.text)
    SYSCFG_CompensationCellCmd               0x0804c58d   Thumb Code    24  stm32f2xx_syscfg.o(.text)
    SYSCFG_GetCompensationCellStatus         0x0804c5a5   Thumb Code    16  stm32f2xx_syscfg.o(.text)
    USART_DeInit                             0x0804c5c5   Thumb Code   158  stm32f2xx_usart.o(.text)
    USART_Init                               0x0804c663   Thumb Code   388  stm32f2xx_usart.o(.text)
    USART_StructInit                         0x0804c7e7   Thumb Code    22  stm32f2xx_usart.o(.text)
    USART_ClockInit                          0x0804c7fd   Thumb Code   146  stm32f2xx_usart.o(.text)
    USART_ClockStructInit                    0x0804c88f   Thumb Code    12  stm32f2xx_usart.o(.text)
    USART_Cmd                                0x0804c89b   Thumb Code    86  stm32f2xx_usart.o(.text)
    USART_SetPrescaler                       0x0804c8f1   Thumb Code    68  stm32f2xx_usart.o(.text)
    USART_OverSampling8Cmd                   0x0804c935   Thumb Code    86  stm32f2xx_usart.o(.text)
    USART_OneBitMethodCmd                    0x0804c98b   Thumb Code   120  stm32f2xx_usart.o(.text)
    USART_SendData                           0x0804ca03   Thumb Code    76  stm32f2xx_usart.o(.text)
    USART_ReceiveData                        0x0804ca4f   Thumb Code    58  stm32f2xx_usart.o(.text)
    USART_SetAddress                         0x0804ca89   Thumb Code    82  stm32f2xx_usart.o(.text)
    USART_ReceiverWakeUpCmd                  0x0804cadb   Thumb Code    86  stm32f2xx_usart.o(.text)
    USART_WakeUpConfig                       0x0804cb31   Thumb Code    86  stm32f2xx_usart.o(.text)
    USART_LINBreakDetectLengthConfig         0x0804cb87   Thumb Code    84  stm32f2xx_usart.o(.text)
    USART_LINCmd                             0x0804cbdb   Thumb Code    86  stm32f2xx_usart.o(.text)
    USART_SendBreak                          0x0804cc31   Thumb Code    60  stm32f2xx_usart.o(.text)
    USART_HalfDuplexCmd                      0x0804cc6d   Thumb Code    86  stm32f2xx_usart.o(.text)
    USART_SetGuardTime                       0x0804ccc3   Thumb Code    56  stm32f2xx_usart.o(.text)
    USART_SmartCardCmd                       0x0804ccfb   Thumb Code    74  stm32f2xx_usart.o(.text)
    USART_SmartCardNACKCmd                   0x0804cd45   Thumb Code    74  stm32f2xx_usart.o(.text)
    USART_IrDAConfig                         0x0804cd8f   Thumb Code   114  stm32f2xx_usart.o(.text)
    USART_IrDACmd                            0x0804ce01   Thumb Code    86  stm32f2xx_usart.o(.text)
    USART_DMACmd                             0x0804ce57   Thumb Code   102  stm32f2xx_usart.o(.text)
    USART_ITConfig                           0x0804cebd   Thumb Code   220  stm32f2xx_usart.o(.text)
    USART_GetFlagStatus                      0x0804cf99   Thumb Code   152  stm32f2xx_usart.o(.text)
    USART_ClearFlag                          0x0804d031   Thumb Code   112  stm32f2xx_usart.o(.text)
    USART_GetITStatus                        0x0804d0a1   Thumb Code   238  stm32f2xx_usart.o(.text)
    USART_ClearITPendingBit                  0x0804d18f   Thumb Code   172  stm32f2xx_usart.o(.text)
    Reset_Handler                            0x0804d241   Thumb Code     8  startup_stm32f2xx.o(.text)
    ADC_IRQHandler                           0x0804d25b   Thumb Code     0  startup_stm32f2xx.o(.text)
    CAN1_RX0_IRQHandler                      0x0804d25b   Thumb Code     0  startup_stm32f2xx.o(.text)
    CAN1_RX1_IRQHandler                      0x0804d25b   Thumb Code     0  startup_stm32f2xx.o(.text)
    CAN1_SCE_IRQHandler                      0x0804d25b   Thumb Code     0  startup_stm32f2xx.o(.text)
    CAN1_TX_IRQHandler                       0x0804d25b   Thumb Code     0  startup_stm32f2xx.o(.text)
    CAN2_RX0_IRQHandler                      0x0804d25b   Thumb Code     0  startup_stm32f2xx.o(.text)
    CAN2_RX1_IRQHandler                      0x0804d25b   Thumb Code     0  startup_stm32f2xx.o(.text)
    CAN2_SCE_IRQHandler                      0x0804d25b   Thumb Code     0  startup_stm32f2xx.o(.text)
    CAN2_TX_IRQHandler                       0x0804d25b   Thumb Code     0  startup_stm32f2xx.o(.text)
    CRYP_IRQHandler                          0x0804d25b   Thumb Code     0  startup_stm32f2xx.o(.text)
    DCMI_IRQHandler                          0x0804d25b   Thumb Code     0  startup_stm32f2xx.o(.text)
    DMA1_Stream0_IRQHandler                  0x0804d25b   Thumb Code     0  startup_stm32f2xx.o(.text)
    DMA1_Stream1_IRQHandler                  0x0804d25b   Thumb Code     0  startup_stm32f2xx.o(.text)
    DMA1_Stream2_IRQHandler                  0x0804d25b   Thumb Code     0  startup_stm32f2xx.o(.text)
    DMA1_Stream3_IRQHandler                  0x0804d25b   Thumb Code     0  startup_stm32f2xx.o(.text)
    DMA1_Stream4_IRQHandler                  0x0804d25b   Thumb Code     0  startup_stm32f2xx.o(.text)
    DMA1_Stream5_IRQHandler                  0x0804d25b   Thumb Code     0  startup_stm32f2xx.o(.text)
    DMA1_Stream6_IRQHandler                  0x0804d25b   Thumb Code     0  startup_stm32f2xx.o(.text)
    DMA1_Stream7_IRQHandler                  0x0804d25b   Thumb Code     0  startup_stm32f2xx.o(.text)
    DMA2_Stream0_IRQHandler                  0x0804d25b   Thumb Code     0  startup_stm32f2xx.o(.text)
    DMA2_Stream1_IRQHandler                  0x0804d25b   Thumb Code     0  startup_stm32f2xx.o(.text)
    DMA2_Stream2_IRQHandler                  0x0804d25b   Thumb Code     0  startup_stm32f2xx.o(.text)
    DMA2_Stream3_IRQHandler                  0x0804d25b   Thumb Code     0  startup_stm32f2xx.o(.text)
    DMA2_Stream4_IRQHandler                  0x0804d25b   Thumb Code     0  startup_stm32f2xx.o(.text)
    DMA2_Stream5_IRQHandler                  0x0804d25b   Thumb Code     0  startup_stm32f2xx.o(.text)
    DMA2_Stream6_IRQHandler                  0x0804d25b   Thumb Code     0  startup_stm32f2xx.o(.text)
    DMA2_Stream7_IRQHandler                  0x0804d25b   Thumb Code     0  startup_stm32f2xx.o(.text)
    ETH_WKUP_IRQHandler                      0x0804d25b   Thumb Code     0  startup_stm32f2xx.o(.text)
    EXTI0_IRQHandler                         0x0804d25b   Thumb Code     0  startup_stm32f2xx.o(.text)
    EXTI15_10_IRQHandler                     0x0804d25b   Thumb Code     0  startup_stm32f2xx.o(.text)
    EXTI1_IRQHandler                         0x0804d25b   Thumb Code     0  startup_stm32f2xx.o(.text)
    EXTI2_IRQHandler                         0x0804d25b   Thumb Code     0  startup_stm32f2xx.o(.text)
    EXTI3_IRQHandler                         0x0804d25b   Thumb Code     0  startup_stm32f2xx.o(.text)
    EXTI4_IRQHandler                         0x0804d25b   Thumb Code     0  startup_stm32f2xx.o(.text)
    FLASH_IRQHandler                         0x0804d25b   Thumb Code     0  startup_stm32f2xx.o(.text)
    FSMC_IRQHandler                          0x0804d25b   Thumb Code     0  startup_stm32f2xx.o(.text)
    HASH_RNG_IRQHandler                      0x0804d25b   Thumb Code     0  startup_stm32f2xx.o(.text)
    I2C1_ER_IRQHandler                       0x0804d25b   Thumb Code     0  startup_stm32f2xx.o(.text)
    I2C1_EV_IRQHandler                       0x0804d25b   Thumb Code     0  startup_stm32f2xx.o(.text)
    I2C2_ER_IRQHandler                       0x0804d25b   Thumb Code     0  startup_stm32f2xx.o(.text)
    I2C2_EV_IRQHandler                       0x0804d25b   Thumb Code     0  startup_stm32f2xx.o(.text)
    I2C3_ER_IRQHandler                       0x0804d25b   Thumb Code     0  startup_stm32f2xx.o(.text)
    I2C3_EV_IRQHandler                       0x0804d25b   Thumb Code     0  startup_stm32f2xx.o(.text)
    OTG_FS_IRQHandler                        0x0804d25b   Thumb Code     0  startup_stm32f2xx.o(.text)
    OTG_FS_WKUP_IRQHandler                   0x0804d25b   Thumb Code     0  startup_stm32f2xx.o(.text)
    OTG_HS_EP1_IN_IRQHandler                 0x0804d25b   Thumb Code     0  startup_stm32f2xx.o(.text)
    OTG_HS_EP1_OUT_IRQHandler                0x0804d25b   Thumb Code     0  startup_stm32f2xx.o(.text)
    OTG_HS_IRQHandler                        0x0804d25b   Thumb Code     0  startup_stm32f2xx.o(.text)
    OTG_HS_WKUP_IRQHandler                   0x0804d25b   Thumb Code     0  startup_stm32f2xx.o(.text)
    PVD_IRQHandler                           0x0804d25b   Thumb Code     0  startup_stm32f2xx.o(.text)
    RCC_IRQHandler                           0x0804d25b   Thumb Code     0  startup_stm32f2xx.o(.text)
    RTC_Alarm_IRQHandler                     0x0804d25b   Thumb Code     0  startup_stm32f2xx.o(.text)
    RTC_WKUP_IRQHandler                      0x0804d25b   Thumb Code     0  startup_stm32f2xx.o(.text)
    SDIO_IRQHandler                          0x0804d25b   Thumb Code     0  startup_stm32f2xx.o(.text)
    SPI1_IRQHandler                          0x0804d25b   Thumb Code     0  startup_stm32f2xx.o(.text)
    SPI2_IRQHandler                          0x0804d25b   Thumb Code     0  startup_stm32f2xx.o(.text)
    SPI3_IRQHandler                          0x0804d25b   Thumb Code     0  startup_stm32f2xx.o(.text)
    TAMP_STAMP_IRQHandler                    0x0804d25b   Thumb Code     0  startup_stm32f2xx.o(.text)
    TIM1_BRK_TIM9_IRQHandler                 0x0804d25b   Thumb Code     0  startup_stm32f2xx.o(.text)
    TIM1_CC_IRQHandler                       0x0804d25b   Thumb Code     0  startup_stm32f2xx.o(.text)
    TIM1_TRG_COM_TIM11_IRQHandler            0x0804d25b   Thumb Code     0  startup_stm32f2xx.o(.text)
    TIM1_UP_TIM10_IRQHandler                 0x0804d25b   Thumb Code     0  startup_stm32f2xx.o(.text)
    TIM2_IRQHandler                          0x0804d25b   Thumb Code     0  startup_stm32f2xx.o(.text)
    TIM3_IRQHandler                          0x0804d25b   Thumb Code     0  startup_stm32f2xx.o(.text)
    TIM4_IRQHandler                          0x0804d25b   Thumb Code     0  startup_stm32f2xx.o(.text)
    TIM5_IRQHandler                          0x0804d25b   Thumb Code     0  startup_stm32f2xx.o(.text)
    TIM6_DAC_IRQHandler                      0x0804d25b   Thumb Code     0  startup_stm32f2xx.o(.text)
    TIM7_IRQHandler                          0x0804d25b   Thumb Code     0  startup_stm32f2xx.o(.text)
    TIM8_BRK_TIM12_IRQHandler                0x0804d25b   Thumb Code     0  startup_stm32f2xx.o(.text)
    TIM8_CC_IRQHandler                       0x0804d25b   Thumb Code     0  startup_stm32f2xx.o(.text)
    TIM8_TRG_COM_TIM14_IRQHandler            0x0804d25b   Thumb Code     0  startup_stm32f2xx.o(.text)
    TIM8_UP_TIM13_IRQHandler                 0x0804d25b   Thumb Code     0  startup_stm32f2xx.o(.text)
    USART6_IRQHandler                        0x0804d25b   Thumb Code     0  startup_stm32f2xx.o(.text)
    WWDG_IRQHandler                          0x0804d25b   Thumb Code     0  startup_stm32f2xx.o(.text)
    __user_initial_stackheap                 0x0804d25d   Thumb Code     0  startup_stm32f2xx.o(.text)
    CRC16                                    0x0804d281   Thumb Code    42  crc.o(.text)
    rt_system_tick_init                      0x0804d2b1   Thumb Code     2  clock.o(.text)
    rt_tick_get                              0x0804d2b3   Thumb Code     6  clock.o(.text)
    rt_tick_set                              0x0804d2b9   Thumb Code    20  clock.o(.text)
    rt_tick_increase                         0x0804d2cd   Thumb Code    38  clock.o(.text)
    rt_tick_from_millisecond                 0x0804d2f3   Thumb Code    24  clock.o(.text)
    rt_device_find                           0x0804d311   Thumb Code    76  device.o(.text)
    rt_device_register                       0x0804d35d   Thumb Code    44  device.o(.text)
    rt_device_unregister                     0x0804d389   Thumb Code    42  device.o(.text)
    rt_device_init_all                       0x0804d3b3   Thumb Code    60  device.o(.text)
    rt_device_init                           0x0804d3ef   Thumb Code    78  device.o(.text)
    rt_device_open                           0x0804d43d   Thumb Code   122  device.o(.text)
    rt_device_close                          0x0804d4b7   Thumb Code    60  device.o(.text)
    rt_device_read                           0x0804d4f3   Thumb Code    78  device.o(.text)
    rt_device_write                          0x0804d541   Thumb Code    78  device.o(.text)
    rt_device_control                        0x0804d58f   Thumb Code    60  device.o(.text)
    rt_device_set_rx_indicate                0x0804d5cb   Thumb Code    42  device.o(.text)
    rt_device_set_tx_complete                0x0804d5f5   Thumb Code    42  device.o(.text)
    rt_thread_idle_sethook                   0x0804d691   Thumb Code     6  idle.o(.text)
    rt_thread_idle_excute                    0x0804d697   Thumb Code   154  idle.o(.text)
    rt_thread_idle_init                      0x0804d73f   Thumb Code    40  idle.o(.text)
    rt_sem_init                              0x0804d857   Thumb Code    62  ipc.o(.text)
    rt_sem_detach                            0x0804d895   Thumb Code    50  ipc.o(.text)
    rt_sem_create                            0x0804d8c7   Thumb Code    92  ipc.o(.text)
    rt_sem_delete                            0x0804d923   Thumb Code   110  ipc.o(.text)
    rt_sem_take                              0x0804d991   Thumb Code   222  ipc.o(.text)
    rt_sem_trytake                           0x0804da6f   Thumb Code     4  ipc.o(.text)
    rt_sem_release                           0x0804da73   Thumb Code    72  ipc.o(.text)
    rt_sem_control                           0x0804dabb   Thumb Code    78  ipc.o(.text)
    rt_mutex_init                            0x0804db09   Thumb Code    78  ipc.o(.text)
    rt_mutex_detach                          0x0804db57   Thumb Code    52  ipc.o(.text)
    rt_mutex_create                          0x0804db8b   Thumb Code   100  ipc.o(.text)
    rt_mutex_delete                          0x0804dbef   Thumb Code   236  ipc.o(.text)
    rt_mutex_take                            0x0804dcdb   Thumb Code   278  ipc.o(.text)
    rt_mutex_release                         0x0804ddf1   Thumb Code   158  ipc.o(.text)
    rt_mutex_control                         0x0804de8f   Thumb Code     6  ipc.o(.text)
    rt_event_init                            0x0804de95   Thumb Code    70  ipc.o(.text)
    rt_event_detach                          0x0804dedb   Thumb Code    54  ipc.o(.text)
    rt_event_create                          0x0804df11   Thumb Code    96  ipc.o(.text)
    rt_event_delete                          0x0804df71   Thumb Code   120  ipc.o(.text)
    rt_event_send                            0x0804dfe9   Thumb Code   184  ipc.o(.text)
    rt_event_recv                            0x0804e0a1   Thumb Code   342  ipc.o(.text)
    rt_event_control                         0x0804e1f7   Thumb Code    84  ipc.o(.text)
    rt_mb_init                               0x0804e24b   Thumb Code    94  ipc.o(.text)
    rt_mb_detach                             0x0804e2a9   Thumb Code    62  ipc.o(.text)
    rt_mb_create                             0x0804e2e7   Thumb Code   138  ipc.o(.text)
    rt_mb_delete                             0x0804e371   Thumb Code   132  ipc.o(.text)
    rt_mb_send_wait                          0x0804e3f5   Thumb Code   378  ipc.o(.text)
    rt_mb_send                               0x0804e56f   Thumb Code     4  ipc.o(.text)
    rt_mb_recv                               0x0804e573   Thumb Code   360  ipc.o(.text)
    rt_mb_control                            0x0804e6db   Thumb Code    96  ipc.o(.text)
    rt_mq_init                               0x0804e73b   Thumb Code   136  ipc.o(.text)
    rt_mq_detach                             0x0804e7c3   Thumb Code    54  ipc.o(.text)
    rt_mq_delete                             0x0804e7f9   Thumb Code   124  ipc.o(.text)
    rt_mq_create                             0x0804e875   Thumb Code   176  ipc.o(.text)
    rt_mq_send                               0x0804e925   Thumb Code   292  ipc.o(.text)
    rt_mq_urgent                             0x0804ea49   Thumb Code   230  ipc.o(.text)
    rt_mq_recv                               0x0804eb2f   Thumb Code   418  ipc.o(.text)
    rt_mq_control                            0x0804ecd1   Thumb Code   108  ipc.o(.text)
    rt_interrupt_enter                       0x0804ed89   Thumb Code    22  irq.o(.text)
    rt_interrupt_leave                       0x0804ed9f   Thumb Code    22  irq.o(.text)
    rt_interrupt_get_nest                    0x0804edb5   Thumb Code     6  irq.o(.text)
    rt_get_errno                             0x0804edc1   Thumb Code    24  kservice.o(.text)
    rt_set_errno                             0x0804edd9   Thumb Code    26  kservice.o(.text)
    _rt_errno                                0x0804edf3   Thumb Code    24  kservice.o(.text)
    rt_memset                                0x0804ee0b   Thumb Code    66  kservice.o(.text)
    rt_memcpy                                0x0804ee4d   Thumb Code    70  kservice.o(.text)
    rt_memmove                               0x0804ee93   Thumb Code    46  kservice.o(.text)
    rt_memcmp                                0x0804eec1   Thumb Code    28  kservice.o(.text)
    rt_strlen                                0x0804eedd   Thumb Code    16  kservice.o(.text)
    rt_strstr                                0x0804eeed   Thumb Code    54  kservice.o(.text)
    rt_strcasecmp                            0x0804ef23   Thumb Code    42  kservice.o(.text)
    rt_strncpy                               0x0804ef4d   Thumb Code    38  kservice.o(.text)
    rt_strncmp                               0x0804ef73   Thumb Code    32  kservice.o(.text)
    rt_strcmp                                0x0804ef93   Thumb Code    24  kservice.o(.text)
    rt_strdup                                0x0804efab   Thumb Code    36  kservice.o(.text)
    rt_hw_console_output                     0x0804efcf   Thumb Code     2  kservice.o(.text)
    rt_kprintf                               0x0804f355   Thumb Code    52  kservice.o(.text)
    rt_show_version                          0x0804f389   Thumb Code    38  kservice.o(.text)
    rt_snprintf                              0x0804f3af   Thumb Code    14  kservice.o(.text)
    rt_vsprintf                              0x0804f3bd   Thumb Code    10  kservice.o(.text)
    rt_sprintf                               0x0804f3c7   Thumb Code    14  kservice.o(.text)
    rt_console_get_device                    0x0804f3d5   Thumb Code     6  kservice.o(.text)
    rt_console_set_device                    0x0804f3db   Thumb Code    36  kservice.o(.text)
    rt_malloc_align                          0x0804f3ff   Thumb Code    50  kservice.o(.text)
    rt_free_align                            0x0804f431   Thumb Code     8  kservice.o(.text)
    rt_malloc_sethook                        0x0804f4f9   Thumb Code     6  mem.o(.text)
    rt_free_sethook                          0x0804f4ff   Thumb Code     6  mem.o(.text)
    rt_system_heap_init                      0x0804f5b3   Thumb Code   158  mem.o(.text)
    rt_malloc                                0x0804f651   Thumb Code   442  mem.o(.text)
    rt_free                                  0x0804f80b   Thumb Code   686  mem.o(.text)
    rt_realloc                               0x0804fab9   Thumb Code   260  mem.o(.text)
    rt_calloc                                0x0804fbbd   Thumb Code    94  mem.o(.text)
    rt_memory_info                           0x0804fc1b   Thumb Code    26  mem.o(.text)
    rt_object_attach_sethook                 0x0804fc5d   Thumb Code     6  object.o(.text)
    rt_object_detach_sethook                 0x0804fc63   Thumb Code     6  object.o(.text)
    rt_object_trytake_sethook                0x0804fc69   Thumb Code     6  object.o(.text)
    rt_object_take_sethook                   0x0804fc6f   Thumb Code     6  object.o(.text)
    rt_object_put_sethook                    0x0804fc75   Thumb Code     6  object.o(.text)
    rt_system_object_init                    0x0804fc7b   Thumb Code     2  object.o(.text)
    rt_object_get_information                0x0804fc7d   Thumb Code    10  object.o(.text)
    rt_object_init                           0x0804fc87   Thumb Code    66  object.o(.text)
    rt_object_detach                         0x0804fcc9   Thumb Code    64  object.o(.text)
    rt_object_allocate                       0x0804fd09   Thumb Code   134  object.o(.text)
    rt_object_delete                         0x0804fd8f   Thumb Code   112  object.o(.text)
    rt_object_is_systemobject                0x0804fdff   Thumb Code    48  object.o(.text)
    rt_object_find                           0x0804fe2f   Thumb Code   106  object.o(.text)
    rt_scheduler_sethook                     0x0804ff4d   Thumb Code     6  scheduler.o(.text)
    rt_system_scheduler_init                 0x0804ff53   Thumb Code    44  scheduler.o(.text)
    rt_system_scheduler_start                0x0804ff7f   Thumb Code    74  scheduler.o(.text)
    rt_schedule                              0x0804ffc9   Thumb Code   140  scheduler.o(.text)
    rt_schedule_insert_thread                0x08050055   Thumb Code    90  scheduler.o(.text)
    rt_schedule_remove_thread                0x080500af   Thumb Code    96  scheduler.o(.text)
    rt_enter_critical                        0x0805010f   Thumb Code    22  scheduler.o(.text)
    rt_exit_critical                         0x08050125   Thumb Code    42  scheduler.o(.text)
    rt_thread_timeout                        0x08050297   Thumb Code    98  thread.o(.text)
    rt_thread_init                           0x08050383   Thumb Code   116  thread.o(.text)
    rt_thread_self                           0x080503f7   Thumb Code     6  thread.o(.text)
    rt_thread_resume                         0x080503fd   Thumb Code    98  thread.o(.text)
    rt_thread_startup                        0x0805045f   Thumb Code   106  thread.o(.text)
    rt_thread_detach                         0x080504c9   Thumb Code    88  thread.o(.text)
    rt_thread_create                         0x08050521   Thumb Code    72  thread.o(.text)
    rt_thread_delete                         0x08050569   Thumb Code    80  thread.o(.text)
    rt_thread_yield                          0x080505b9   Thumb Code    82  thread.o(.text)
    rt_thread_suspend                        0x0805060b   Thumb Code   278  thread.o(.text)
    rt_thread_sleep                          0x08050721   Thumb Code    96  thread.o(.text)
    rt_thread_delay                          0x08050781   Thumb Code     2  thread.o(.text)
    rt_thread_control                        0x08050783   Thumb Code   128  thread.o(.text)
    rt_thread_find                           0x08050803   Thumb Code    72  thread.o(.text)
    rt_timer_timeout_sethook                 0x08050879   Thumb Code     6  timer.o(.text)
    rt_timer_init                            0x0805087f   Thumb Code    70  timer.o(.text)
    rt_timer_detach                          0x080508c5   Thumb Code    62  timer.o(.text)
    rt_timer_create                          0x08050903   Thumb Code    44  timer.o(.text)
    rt_timer_delete                          0x0805092f   Thumb Code    62  timer.o(.text)
    rt_timer_start                           0x0805096d   Thumb Code   180  timer.o(.text)
    rt_timer_stop                            0x08050a21   Thumb Code    88  timer.o(.text)
    rt_timer_control                         0x08050a79   Thumb Code    86  timer.o(.text)
    rt_timer_check                           0x08050acf   Thumb Code   120  timer.o(.text)
    rt_timer_next_timeout_tick               0x08050b47   Thumb Code    26  timer.o(.text)
    rt_system_timer_init                     0x08050b61   Thumb Code     2  timer.o(.text)
    rt_system_timer_thread_init              0x08050b63   Thumb Code     2  timer.o(.text)
    rt_hw_stack_init                         0x08050c19   Thumb Code    52  cpuport.o(.text)
    rt_hw_exception_install                  0x08050c4d   Thumb Code     6  cpuport.o(.text)
    rt_hw_hard_fault_exception               0x08050d8b   Thumb Code   102  cpuport.o(.text)
    rt_hw_cpu_shutdown                       0x08050df1   Thumb Code    38  cpuport.o(.text)
    rt_hw_interrupt_disable                  0x080510b1   Thumb Code     8  context_rvds.o(.text)
    rt_hw_interrupt_enable                   0x080510b9   Thumb Code     6  context_rvds.o(.text)
    rt_hw_context_switch                     0x080510bf   Thumb Code    32  context_rvds.o(.text)
    rt_hw_context_switch_interrupt           0x080510bf   Thumb Code     0  context_rvds.o(.text)
    PendSV_Handler                           0x080510df   Thumb Code    60  context_rvds.o(.text)
    rt_hw_context_switch_to                  0x0805111b   Thumb Code    46  context_rvds.o(.text)
    rt_hw_interrupt_thread_switch            0x08051149   Thumb Code     4  context_rvds.o(.text)
    HardFault_Handler                        0x0805114d   Thumb Code    20  context_rvds.o(.text)
    dfs_init                                 0x08051175   Thumb Code    68  dfs.o(.text)
    dfs_lock                                 0x080511b9   Thumb Code    46  dfs.o(.text)
    dfs_unlock                               0x080511e7   Thumb Code     8  dfs.o(.text)
    fd_new                                   0x080511ef   Thumb Code    66  dfs.o(.text)
    fd_get                                   0x08051231   Thumb Code    62  dfs.o(.text)
    fd_put                                   0x0805126f   Thumb Code    66  dfs.o(.text)
    dfs_normalize_path                       0x080512b1   Thumb Code   280  dfs.o(.text)
    fd_is_open                               0x080513c9   Thumb Code   134  dfs.o(.text)
    dfs_subdir                               0x0805144f   Thumb Code    48  dfs.o(.text)
    dfs_register                             0x080514e5   Thumb Code    82  dfs_fs.o(.text)
    dfs_filesystem_lookup                    0x08051537   Thumb Code    98  dfs_fs.o(.text)
    dfs_filesystem_get_partition             0x08051599   Thumb Code   180  dfs_fs.o(.text)
    dfs_mount                                0x0805164d   Thumb Code   362  dfs_fs.o(.text)
    dfs_unmount                              0x080517b7   Thumb Code   110  dfs_fs.o(.text)
    dfs_mkfs                                 0x08051825   Thumb Code    78  dfs_fs.o(.text)
    dfs_statfs                               0x08051873   Thumb Code    30  dfs_fs.o(.text)
    dfs_file_open                            0x08051969   Thumb Code   194  dfs_file.o(.text)
    dfs_file_close                           0x08051a2b   Thumb Code    46  dfs_file.o(.text)
    dfs_file_ioctl                           0x08051a59   Thumb Code    28  dfs_file.o(.text)
    dfs_file_read                            0x08051a75   Thumb Code    44  dfs_file.o(.text)
    dfs_file_getdents                        0x08051aa1   Thumb Code    30  dfs_file.o(.text)
    dfs_file_unlink                          0x08051abf   Thumb Code   118  dfs_file.o(.text)
    dfs_file_write                           0x08051b35   Thumb Code    24  dfs_file.o(.text)
    dfs_file_flush                           0x08051b4d   Thumb Code    24  dfs_file.o(.text)
    dfs_file_lseek                           0x08051b65   Thumb Code    38  dfs_file.o(.text)
    dfs_file_stat                            0x08051b8b   Thumb Code   156  dfs_file.o(.text)
    dfs_file_rename                          0x08051c27   Thumb Code   132  dfs_file.o(.text)
    open                                     0x08051cb1   Thumb Code    76  dfs_posix.o(.text)
    close                                    0x08051cfd   Thumb Code    56  dfs_posix.o(.text)
    read                                     0x08051d35   Thumb Code    62  dfs_posix.o(.text)
    write                                    0x08051d73   Thumb Code    62  dfs_posix.o(.text)
    lseek                                    0x08051db1   Thumb Code    92  dfs_posix.o(.text)
    rename                                   0x08051e0d   Thumb Code    24  dfs_posix.o(.text)
    unlink                                   0x08051e25   Thumb Code    24  dfs_posix.o(.text)
    stat                                     0x08051e3d   Thumb Code    20  dfs_posix.o(.text)
    fstat                                    0x08051e51   Thumb Code    68  dfs_posix.o(.text)
    statfs                                   0x08051e95   Thumb Code    20  dfs_posix.o(.text)
    mkdir                                    0x08051ea9   Thumb Code    70  dfs_posix.o(.text)
    rmdir                                    0x08051eef   Thumb Code    24  dfs_posix.o(.text)
    opendir                                  0x08051f07   Thumb Code   114  dfs_posix.o(.text)
    readdir                                  0x08051f79   Thumb Code   102  dfs_posix.o(.text)
    telldir                                  0x08051fdf   Thumb Code    46  dfs_posix.o(.text)
    seekdir                                  0x0805200d   Thumb Code    58  dfs_posix.o(.text)
    rewinddir                                0x08052047   Thumb Code    56  dfs_posix.o(.text)
    closedir                                 0x0805207f   Thumb Code    68  dfs_posix.o(.text)
    chdir                                    0x080520c3   Thumb Code   114  dfs_posix.o(.text)
    getcwd                                   0x08052135   Thumb Code    28  dfs_posix.o(.text)
    dfs_elm_mount                            0x0805219f   Thumb Code   148  dfs_elm.o(.text)
    dfs_elm_unmount                          0x08052233   Thumb Code    96  dfs_elm.o(.text)
    dfs_elm_mkfs                             0x08052293   Thumb Code    78  dfs_elm.o(.text)
    dfs_elm_statfs                           0x080522e1   Thumb Code   128  dfs_elm.o(.text)
    dfs_elm_open                             0x08052361   Thumb Code   180  dfs_elm.o(.text)
    dfs_elm_close                            0x08052415   Thumb Code   108  dfs_elm.o(.text)
    dfs_elm_ioctl                            0x08052481   Thumb Code     6  dfs_elm.o(.text)
    dfs_elm_read                             0x08052487   Thumb Code    86  dfs_elm.o(.text)
    dfs_elm_write                            0x080524dd   Thumb Code    90  dfs_elm.o(.text)
    dfs_elm_flush                            0x08052537   Thumb Code    48  dfs_elm.o(.text)
    dfs_elm_lseek                            0x08052567   Thumb Code   316  dfs_elm.o(.text)
    dfs_elm_getdents                         0x080526a3   Thumb Code   210  dfs_elm.o(.text)
    dfs_elm_unlink                           0x08052775   Thumb Code    14  dfs_elm.o(.text)
    dfs_elm_rename                           0x08052783   Thumb Code    16  dfs_elm.o(.text)
    dfs_elm_stat                             0x08052793   Thumb Code    80  dfs_elm.o(.text)
    elm_init                                 0x080527e3   Thumb Code    14  dfs_elm.o(.text)
    disk_initialize                          0x080527f1   Thumb Code     4  dfs_elm.o(.text)
    disk_status                              0x080527f5   Thumb Code     4  dfs_elm.o(.text)
    disk_read                                0x080527f9   Thumb Code    32  dfs_elm.o(.text)
    disk_write                               0x08052819   Thumb Code    32  dfs_elm.o(.text)
    disk_ioctl                               0x08052839   Thumb Code   144  dfs_elm.o(.text)
    get_fattime                              0x080528c9   Thumb Code     4  dfs_elm.o(.text)
    ff_cre_syncobj                           0x080528cd   Thumb Code    34  dfs_elm.o(.text)
    ff_del_syncobj                           0x080528ef   Thumb Code    10  dfs_elm.o(.text)
    ff_req_grant                             0x080528f9   Thumb Code    20  dfs_elm.o(.text)
    ff_rel_grant                             0x0805290d   Thumb Code     4  dfs_elm.o(.text)
    clust2sect                               0x08052a41   Thumb Code    24  ff.o(.text)
    get_fat                                  0x08052a59   Thumb Code   226  ff.o(.text)
    put_fat                                  0x08052b3b   Thumb Code   292  ff.o(.text)
    f_mount                                  0x080534d1   Thumb Code    58  ff.o(.text)
    f_open                                   0x0805350b   Thumb Code   318  ff.o(.text)
    f_read                                   0x08053649   Thumb Code   400  ff.o(.text)
    f_write                                  0x080537d9   Thumb Code   464  ff.o(.text)
    f_sync                                   0x080539a9   Thumb Code   182  ff.o(.text)
    f_close                                  0x08053a5f   Thumb Code    18  ff.o(.text)
    f_lseek                                  0x08053a71   Thumb Code   576  ff.o(.text)
    f_opendir                                0x08053cb1   Thumb Code    94  ff.o(.text)
    f_readdir                                0x08053d0f   Thumb Code    94  ff.o(.text)
    f_seekdir                                0x08053d6d   Thumb Code    54  ff.o(.text)
    f_stat                                   0x08053da3   Thumb Code    66  ff.o(.text)
    f_getfree                                0x08053de5   Thumb Code   208  ff.o(.text)
    f_truncate                               0x08053eb5   Thumb Code   152  ff.o(.text)
    f_unlink                                 0x08053f4d   Thumb Code   168  ff.o(.text)
    f_mkdir                                  0x08053ff5   Thumb Code   406  ff.o(.text)
    f_chmod                                  0x0805418b   Thumb Code    88  ff.o(.text)
    f_utime                                  0x080541e3   Thumb Code    90  ff.o(.text)
    f_rename                                 0x0805423d   Thumb Code   268  ff.o(.text)
    f_mkfs                                   0x08054349   Thumb Code  1296  ff.o(.text)
    time                                     0x08054895   Thumb Code    58  rtc.o(.text)
    set_date                                 0x080548cf   Thumb Code    90  rtc.o(.text)
    set_time                                 0x08054929   Thumb Code    80  rtc.o(.text)
    rt_hw_serial_register                    0x08054ca5   Thumb Code    92  serial.o(.text)
    rt_hw_serial_isr                         0x08054d01   Thumb Code   342  serial.o(.text)
    rt_hw_serial_dma_tx_isr                  0x08054e57   Thumb Code    50  serial.o(.text)
    rt_spi_bus_register                      0x08054ea5   Thumb Code    36  spi_core.o(.text)
    rt_spi_bus_attach_device                 0x08054ec9   Thumb Code    60  spi_core.o(.text)
    rt_spi_configure                         0x08054f05   Thumb Code   100  spi_core.o(.text)
    rt_spi_send_then_send                    0x08054f69   Thumb Code   222  spi_core.o(.text)
    rt_spi_send_then_recv                    0x08055047   Thumb Code   214  spi_core.o(.text)
    rt_spi_transfer                          0x0805511d   Thumb Code   198  spi_core.o(.text)
    rt_spi_transfer_message                  0x080551e3   Thumb Code   138  spi_core.o(.text)
    rt_spi_take_bus                          0x0805526d   Thumb Code   242  spi_core.o(.text)
    rt_spi_release_bus                       0x0805535f   Thumb Code   122  spi_core.o(.text)
    rt_spi_take                              0x080553d9   Thumb Code   114  spi_core.o(.text)
    rt_spi_release                           0x0805544b   Thumb Code   112  spi_core.o(.text)
    rt_spi_bus_device_init                   0x080555d7   Thumb Code    76  spi_dev.o(.text)
    rt_spidev_device_init                    0x0805571b   Thumb Code    76  spi_dev.o(.text)
    rt_data_queue_init                       0x08055811   Thumb Code    92  dataqueue.o(.text)
    rt_data_queue_push                       0x0805586d   Thumb Code   312  dataqueue.o(.text)
    rt_data_queue_pop                        0x080559a5   Thumb Code   394  dataqueue.o(.text)
    rt_data_queue_peak                       0x08055b2f   Thumb Code   100  dataqueue.o(.text)
    rt_data_queue_reset                      0x08055b93   Thumb Code   234  dataqueue.o(.text)
    rt_components_init                       0x08055c99   Thumb Code    28  components.o(.text)
    netconn_new_with_proto_and_callback      0x08055ccd   Thumb Code   158  api_lib.o(.text)
    netconn_delete                           0x08055d6b   Thumb Code    32  api_lib.o(.text)
    netconn_getaddr                          0x08055d8b   Thumb Code   102  api_lib.o(.text)
    netconn_bind                             0x08055df1   Thumb Code    72  api_lib.o(.text)
    netconn_connect                          0x08055e39   Thumb Code    72  api_lib.o(.text)
    netconn_disconnect                       0x08055e81   Thumb Code    66  api_lib.o(.text)
    netconn_listen_with_backlog              0x08055ec3   Thumb Code    66  api_lib.o(.text)
    netconn_accept                           0x08055f05   Thumb Code   164  api_lib.o(.text)
    netconn_recv_tcp_pbuf                    0x08056335   Thumb Code    42  api_lib.o(.text)
    netconn_recv                             0x0805635f   Thumb Code   212  api_lib.o(.text)
    netconn_recved                           0x08056433   Thumb Code    40  api_lib.o(.text)
    netconn_send                             0x0805645b   Thumb Code    72  api_lib.o(.text)
    netconn_sendto                           0x080564a3   Thumb Code    18  api_lib.o(.text)
    netconn_write                            0x080564b5   Thumb Code   114  api_lib.o(.text)
    netconn_close                            0x08056571   Thumb Code     4  api_lib.o(.text)
    netconn_shutdown                         0x08056575   Thumb Code    12  api_lib.o(.text)
    netconn_gethostbyname                    0x08056581   Thumb Code   110  api_lib.o(.text)
    netconn_free                             0x08056f5b   Thumb Code   112  api_msg.o(.text)
    netconn_alloc                            0x08056fcb   Thumb Code   148  api_msg.o(.text)
    do_newconn                               0x080572f9   Thumb Code    32  api_msg.o(.text)
    do_delconn                               0x080573cb   Thumb Code   228  api_msg.o(.text)
    do_bind                                  0x080574af   Thumb Code    82  api_msg.o(.text)
    do_connect                               0x080575a5   Thumb Code   164  api_msg.o(.text)
    do_disconnect                            0x08057649   Thumb Code    42  api_msg.o(.text)
    do_listen                                0x08057673   Thumb Code   440  api_msg.o(.text)
    do_send                                  0x0805782b   Thumb Code   128  api_msg.o(.text)
    do_recv                                  0x080578ab   Thumb Code    68  api_msg.o(.text)
    do_write                                 0x080578ef   Thumb Code   130  api_msg.o(.text)
    do_getaddr                               0x08057971   Thumb Code   138  api_msg.o(.text)
    do_close                                 0x080579fb   Thumb Code   144  api_msg.o(.text)
    do_gethostbyname                         0x08057acd   Thumb Code    36  api_msg.o(.text)
    netbuf_new                               0x08057b49   Thumb Code    26  netbuf.o(.text)
    netbuf_delete                            0x08057b63   Thumb Code    32  netbuf.o(.text)
    netbuf_alloc                             0x08057b83   Thumb Code    78  netbuf.o(.text)
    netbuf_free                              0x08057bd1   Thumb Code    40  netbuf.o(.text)
    netbuf_ref                               0x08057bf9   Thumb Code    78  netbuf.o(.text)
    netbuf_chain                             0x08057c47   Thumb Code    60  netbuf.o(.text)
    netbuf_data                              0x08057c83   Thumb Code    76  netbuf.o(.text)
    netbuf_next                              0x08057ccf   Thumb Code    46  netbuf.o(.text)
    netbuf_first                             0x08057cfd   Thumb Code    28  netbuf.o(.text)
    do_netifapi_netif_add                    0x08057e59   Thumb Code    42  netifapi.o(.text)
    do_netifapi_netif_set_addr               0x08057e83   Thumb Code    26  netifapi.o(.text)
    do_netifapi_netif_common                 0x08057e9d   Thumb Code    34  netifapi.o(.text)
    netifapi_netif_add                       0x08057ebf   Thumb Code    36  netifapi.o(.text)
    netifapi_netif_set_addr                  0x08057ee3   Thumb Code    32  netifapi.o(.text)
    netifapi_netif_common                    0x08057f03   Thumb Code    32  netifapi.o(.text)
    lwip_socket_init                         0x08057f25   Thumb Code     2  sockets.o(.text)
    lwip_accept                              0x080580d7   Thumb Code   356  sockets.o(.text)
    lwip_bind                                0x0805823b   Thumb Code   124  sockets.o(.text)
    lwip_close                               0x080582b7   Thumb Code   356  sockets.o(.text)
    lwip_connect                             0x0805841b   Thumb Code   126  sockets.o(.text)
    lwip_listen                              0x08058499   Thumb Code    90  sockets.o(.text)
    lwip_recvfrom                            0x080584f3   Thumb Code   510  sockets.o(.text)
    lwip_read                                0x080586f1   Thumb Code    14  sockets.o(.text)
    lwip_recv                                0x080586ff   Thumb Code    14  sockets.o(.text)
    lwip_sendto                              0x0805870d   Thumb Code   228  sockets.o(.text)
    lwip_send                                0x080587f1   Thumb Code   308  sockets.o(.text)
    lwip_socket                              0x08058925   Thumb Code   138  sockets.o(.text)
    lwip_write                               0x080589af   Thumb Code     4  sockets.o(.text)
    lwip_select                              0x08058ac3   Thumb Code   826  sockets.o(.text)
    lwip_shutdown                            0x08058dfd   Thumb Code   150  sockets.o(.text)
    lwip_getpeername                         0x08058f05   Thumb Code     4  sockets.o(.text)
    lwip_getsockname                         0x08058f09   Thumb Code     4  sockets.o(.text)
    lwip_getsockopt                          0x08059055   Thumb Code   362  sockets.o(.text)
    lwip_setsockopt                          0x080592d3   Thumb Code   226  sockets.o(.text)
    lwip_ioctl                               0x080593b5   Thumb Code    88  sockets.o(.text)
    lwip_fcntl                               0x0805940d   Thumb Code    70  sockets.o(.text)
    tcpip_input                              0x080594f7   Thumb Code    74  tcpip.o(.text)
    tcpip_callback_with_block                0x08059541   Thumb Code    92  tcpip.o(.text)
    tcpip_timeout                            0x0805959d   Thumb Code    64  tcpip.o(.text)
    tcpip_untimeout                          0x080595dd   Thumb Code    60  tcpip.o(.text)
    tcpip_apimsg                             0x08059619   Thumb Code    58  tcpip.o(.text)
    tcpip_netifapi                           0x08059653   Thumb Code    74  tcpip.o(.text)
    tcpip_init                               0x0805969d   Thumb Code    62  tcpip.o(.text)
    pbuf_free_callback                       0x080596df   Thumb Code     8  tcpip.o(.text)
    mem_free_callback                        0x080596e7   Thumb Code     8  tcpip.o(.text)
    sys_arch_assert                          0x080597a9   Thumb Code    52  sys_arch.o(.text)
    lwip_system_init                         0x08059869   Thumb Code    68  sys_arch.o(.text)
    sys_init                                 0x080598ad   Thumb Code     2  sys_arch.o(.text)
    lwip_sys_init                            0x080598af   Thumb Code     2  sys_arch.o(.text)
    sys_sem_new                              0x080598b1   Thumb Code   110  sys_arch.o(.text)
    sys_sem_free                             0x0805991f   Thumb Code    70  sys_arch.o(.text)
    sys_sem_signal                           0x08059965   Thumb Code     6  sys_arch.o(.text)
    sys_arch_sem_wait                        0x0805996b   Thumb Code   106  sys_arch.o(.text)
    sys_sem_valid                            0x080599d5   Thumb Code     4  sys_arch.o(.text)
    sys_sem_set_invalid                      0x080599d9   Thumb Code     6  sys_arch.o(.text)
    sys_mutex_new                            0x080599df   Thumb Code   108  sys_arch.o(.text)
    sys_mutex_lock                           0x08059a4b   Thumb Code    76  sys_arch.o(.text)
    sys_mutex_unlock                         0x08059a97   Thumb Code     6  sys_arch.o(.text)
    sys_mutex_free                           0x08059a9d   Thumb Code    72  sys_arch.o(.text)
    sys_mutex_valid                          0x08059ae5   Thumb Code     4  sys_arch.o(.text)
    sys_mutex_set_invalid                    0x08059ae9   Thumb Code     6  sys_arch.o(.text)
    sys_mbox_new                             0x08059aef   Thumb Code   384  sys_arch.o(.text)
    sys_mbox_free                            0x08059c6f   Thumb Code    74  sys_arch.o(.text)
    sys_mbox_post                            0x08059cb9   Thumb Code    86  sys_arch.o(.text)
    sys_mbox_trypost                         0x08059d0f   Thumb Code    18  sys_arch.o(.text)
    sys_arch_mbox_fetch                      0x08059d21   Thumb Code   144  sys_arch.o(.text)
    sys_arch_mbox_tryfetch                   0x08059db1   Thumb Code    28  sys_arch.o(.text)
    sys_mbox_valid                           0x08059dcd   Thumb Code     4  sys_arch.o(.text)
    sys_mbox_set_invalid                     0x08059dd1   Thumb Code     6  sys_arch.o(.text)
    sys_thread_new                           0x08059dd7   Thumb Code   144  sys_arch.o(.text)
    sys_arch_protect                         0x08059e67   Thumb Code     4  sys_arch.o(.text)
    sys_arch_unprotect                       0x08059e6b   Thumb Code     4  sys_arch.o(.text)
    sys_jiffies                              0x08059e6f   Thumb Code     4  sys_arch.o(.text)
    lwip_htons                               0x08059ea9   Thumb Code     4  def.o(.text)
    lwip_ntohs                               0x08059ead   Thumb Code     4  def.o(.text)
    lwip_htonl                               0x08059eb1   Thumb Code     4  def.o(.text)
    lwip_ntohl                               0x08059eb5   Thumb Code     4  def.o(.text)
    dhcp_renew                               0x0805a635   Thumb Code   130  dhcp.o(.text)
    dhcp_coarse_tmr                          0x0805a737   Thumb Code    90  dhcp.o(.text)
    dhcp_release                             0x0805a82b   Thumb Code   158  dhcp.o(.text)
    dhcp_fine_tmr                            0x0805a9ef   Thumb Code    46  dhcp.o(.text)
    dhcp_set_struct                          0x0805aa9b   Thumb Code    80  dhcp.o(.text)
    dhcp_cleanup                             0x0805aaeb   Thumb Code    40  dhcp.o(.text)
    dhcp_stop                                0x0805ab13   Thumb Code    90  dhcp.o(.text)
    dhcp_start                               0x0805b0c1   Thumb Code   220  dhcp.o(.text)
    dhcp_inform                              0x0805b19d   Thumb Code   168  dhcp.o(.text)
    dhcp_network_changed                     0x0805b245   Thumb Code    66  dhcp.o(.text)
    dhcp_arp_reply                           0x0805b287   Thumb Code   144  dhcp.o(.text)
    dns_setserver                            0x0805b41d   Thumb Code    32  dns.o(.text)
    dns_init                                 0x0805b59b   Thumb Code    64  dns.o(.text)
    dns_getserver                            0x0805b5db   Thumb Code    20  dns.o(.text)
    dns_tmr                                  0x0805b7c7   Thumb Code    28  dns.o(.text)
    dns_gethostbyname                        0x0805b7e3   Thumb Code   382  dns.o(.text)
    lwip_init                                0x0805ba35   Thumb Code    26  init.o(.text)
    netif_init                               0x0805ba51   Thumb Code     2  netif.o(.text)
    netif_set_gw                             0x0805ba53   Thumb Code     8  netif.o(.text)
    netif_set_netmask                        0x0805ba5b   Thumb Code     8  netif.o(.text)
    netif_set_ipaddr                         0x0805ba63   Thumb Code    94  netif.o(.text)
    netif_set_addr                           0x0805bac1   Thumb Code    30  netif.o(.text)
    netif_add                                0x0805badf   Thumb Code    98  netif.o(.text)
    netif_set_default                        0x0805bb41   Thumb Code     6  netif.o(.text)
    netif_set_down                           0x0805bb47   Thumb Code    18  netif.o(.text)
    netif_remove                             0x0805bb59   Thumb Code    68  netif.o(.text)
    netif_find                               0x0805bb9d   Thumb Code    58  netif.o(.text)
    netif_set_up                             0x0805bbd7   Thumb Code    32  netif.o(.text)
    netif_set_link_up                        0x0805bbf7   Thumb Code    56  netif.o(.text)
    netif_set_link_down                      0x0805bc2f   Thumb Code    18  netif.o(.text)
    pbuf_free                                0x0805bcfd   Thumb Code   130  pbuf.o(.text)
    pbuf_alloc                               0x0805bd7f   Thumb Code   484  pbuf.o(.text)
    pbuf_realloc                             0x0805bf63   Thumb Code   180  pbuf.o(.text)
    pbuf_header                              0x0805c017   Thumb Code   770  pbuf.o(.text)
    pbuf_clen                                0x0805c319   Thumb Code    18  pbuf.o(.text)
    pbuf_ref                                 0x0805c32b   Thumb Code    26  pbuf.o(.text)
    pbuf_cat                                 0x0805c345   Thumb Code   106  pbuf.o(.text)
    pbuf_chain                               0x0805c3af   Thumb Code    16  pbuf.o(.text)
    pbuf_dechain                             0x0805c3bf   Thumb Code   102  pbuf.o(.text)
    pbuf_copy                                0x0805c425   Thumb Code   258  pbuf.o(.text)
    pbuf_copy_partial                        0x0805c527   Thumb Code   130  pbuf.o(.text)
    pbuf_take                                0x0805c5a9   Thumb Code   146  pbuf.o(.text)
    pbuf_coalesce                            0x0805c63b   Thumb Code    64  pbuf.o(.text)
    pbuf_get_at                              0x0805c67b   Thumb Code    24  pbuf.o(.text)
    pbuf_memcmp                              0x0805c693   Thumb Code    68  pbuf.o(.text)
    pbuf_memfind                             0x0805c6d7   Thumb Code   586  pbuf.o(.text)
    pbuf_strstr                              0x0805c921   Thumb Code    50  pbuf.o(.text)
    raw_input                                0x0805c955   Thumb Code   104  raw.o(.text)
    raw_bind                                 0x0805c9bd   Thumb Code    10  raw.o(.text)
    raw_connect                              0x0805c9c7   Thumb Code    10  raw.o(.text)
    raw_recv                                 0x0805c9d1   Thumb Code     6  raw.o(.text)
    raw_sendto                               0x0805c9d7   Thumb Code   162  raw.o(.text)
    raw_send                                 0x0805ca79   Thumb Code     4  raw.o(.text)
    raw_remove                               0x0805ca7d   Thumb Code    36  raw.o(.text)
    raw_new                                  0x0805caa1   Thumb Code    40  raw.o(.text)
    tcp_seg_free                             0x0805cb35   Thumb Code    26  tcp.o(.text)
    tcp_segs_free                            0x0805cb4f   Thumb Code    18  tcp.o(.text)
    tcp_pcb_purge                            0x0805cb61   Thumb Code    70  tcp.o(.text)
    tcp_slowtmr                              0x0805cba7   Thumb Code   742  tcp.o(.text)
    tcp_pcb_remove                           0x0805ce8d   Thumb Code   154  tcp.o(.text)
    tcp_close                                0x0805d227   Thumb Code    22  tcp.o(.text)
    tcp_update_rcv_ann_wnd                   0x0805d23d   Thumb Code    80  tcp.o(.text)
    tcp_recved                               0x0805d28d   Thumb Code    90  tcp.o(.text)
    tcp_recv_null                            0x0805d2e7   Thumb Code    34  tcp.o(.text)
    tcp_fasttmr                              0x0805d309   Thumb Code   100  tcp.o(.text)
    tcp_tmr                                  0x0805d36d   Thumb Code    28  tcp.o(.text)
    tcp_shutdown                             0x0805d389   Thumb Code    78  tcp.o(.text)
    tcp_abandon                              0x0805d3d7   Thumb Code   160  tcp.o(.text)
    tcp_abort                                0x0805d477   Thumb Code     4  tcp.o(.text)
    tcp_bind                                 0x0805d4b9   Thumb Code   324  tcp.o(.text)
    tcp_listen_with_backlog                  0x0805d603   Thumb Code   142  tcp.o(.text)
    tcp_eff_send_mss                         0x0805d691   Thumb Code    32  tcp.o(.text)
    tcp_next_iss                             0x0805d6b1   Thumb Code    12  tcp.o(.text)
    tcp_connect                              0x0805d6bd   Thumb Code   228  tcp.o(.text)
    tcp_setprio                              0x0805d7a1   Thumb Code     4  tcp.o(.text)
    tcp_seg_copy                             0x0805d7a5   Thumb Code    34  tcp.o(.text)
    tcp_alloc                                0x0805d7c7   Thumb Code   232  tcp.o(.text)
    tcp_new                                  0x0805d8af   Thumb Code     4  tcp.o(.text)
    tcp_arg                                  0x0805d8b3   Thumb Code     4  tcp.o(.text)
    tcp_recv                                 0x0805d8b7   Thumb Code     6  tcp.o(.text)
    tcp_sent                                 0x0805d8bd   Thumb Code     6  tcp.o(.text)
    tcp_err                                  0x0805d8c3   Thumb Code     6  tcp.o(.text)
    tcp_accept                               0x0805d8c9   Thumb Code     4  tcp.o(.text)
    tcp_poll                                 0x0805d8cd   Thumb Code    10  tcp.o(.text)
    tcp_debug_state_str                      0x0805d8d7   Thumb Code     8  tcp.o(.text)
    tcp_input                                0x0805e8bf   Thumb Code   948  tcp_in.o(.text)
    tcp_enqueue_flags                        0x0805ef37   Thumb Code   302  tcp_out.o(.text)
    tcp_send_fin                             0x0805f065   Thumb Code    58  tcp_out.o(.text)
    tcp_write                                0x0805f17d   Thumb Code  1372  tcp_out.o(.text)
    tcp_send_empty_ack                       0x0805f6d9   Thumb Code    76  tcp_out.o(.text)
    tcp_output                               0x0805f941   Thumb Code   454  tcp_out.o(.text)
    tcp_rst                                  0x0805fb07   Thumb Code   142  tcp_out.o(.text)
    tcp_rexmit_rto                           0x0805fb95   Thumb Code    44  tcp_out.o(.text)
    tcp_rexmit                               0x0805fbc1   Thumb Code    72  tcp_out.o(.text)
    tcp_rexmit_fast                          0x0805fc09   Thumb Code    90  tcp_out.o(.text)
    tcp_keepalive                            0x0805fc63   Thumb Code    60  tcp_out.o(.text)
    tcp_zero_window_probe                    0x0805fc9f   Thumb Code   190  tcp_out.o(.text)
    sys_timeout                              0x0805fd5d   Thumb Code   108  timers.o(.text)
    tcp_timer_needed                         0x0805fdef   Thumb Code    34  timers.o(.text)
    sys_timeouts_init                        0x0805fe61   Thumb Code    52  timers.o(.text)
    sys_untimeout                            0x0805fe95   Thumb Code    66  timers.o(.text)
    sys_timeouts_mbox_fetch                  0x0805fed7   Thumb Code    96  timers.o(.text)
    udp_input                                0x0805ffd5   Thumb Code   388  udp.o(.text)
    udp_bind                                 0x08060159   Thumb Code   158  udp.o(.text)
    udp_sendto_if                            0x080601f7   Thumb Code   204  udp.o(.text)
    udp_sendto                               0x080602c3   Thumb Code    40  udp.o(.text)
    udp_send                                 0x080602eb   Thumb Code     6  udp.o(.text)
    udp_connect                              0x080602f1   Thumb Code    70  udp.o(.text)
    udp_disconnect                           0x08060337   Thumb Code    16  udp.o(.text)
    udp_recv                                 0x08060347   Thumb Code     6  udp.o(.text)
    udp_remove                               0x0806034d   Thumb Code    36  udp.o(.text)
    udp_new                                  0x08060371   Thumb Code    28  udp.o(.text)
    icmp_input                               0x08060435   Thumb Code   348  icmp.o(.text)
    icmp_dest_unreach                        0x08060591   Thumb Code     8  icmp.o(.text)
    inet_chksum_pseudo                       0x080607c7   Thumb Code   134  inet_chksum.o(.text)
    inet_chksum_pseudo_partial               0x0806084d   Thumb Code   178  inet_chksum.o(.text)
    inet_chksum                              0x080608ff   Thumb Code    12  inet_chksum.o(.text)
    inet_chksum_pbuf                         0x0806090b   Thumb Code    72  inet_chksum.o(.text)
    ip_route                                 0x080609a1   Thumb Code    54  ip.o(.text)
    ip_input                                 0x080609d7   Thumb Code   360  ip.o(.text)
    ip_output_if                             0x08060b3f   Thumb Code   190  ip.o(.text)
    ip_output                                0x08060bfd   Thumb Code    74  ip.o(.text)
    ip4_addr_isbroadcast                     0x08060cc9   Thumb Code    46  ip_addr.o(.text)
    ip4_addr_netmask_valid                   0x08060cf7   Thumb Code    38  ip_addr.o(.text)
    ipaddr_aton                              0x08060d1d   Thumb Code   262  ip_addr.o(.text)
    ipaddr_addr                              0x08060e23   Thumb Code    20  ip_addr.o(.text)
    ipaddr_ntoa_r                            0x08060e37   Thumb Code   120  ip_addr.o(.text)
    ipaddr_ntoa                              0x08060eaf   Thumb Code     6  ip_addr.o(.text)
    etharp_tmr                               0x08060f6b   Thumb Code    50  etharp.o(.text)
    etharp_find_addr                         0x080611bb   Thumb Code    70  etharp.o(.text)
    etharp_request                           0x08061539   Thumb Code    34  etharp.o(.text)
    etharp_query                             0x0806155b   Thumb Code   306  etharp.o(.text)
    etharp_output                            0x0806168d   Thumb Code   196  etharp.o(.text)
    ethernet_input                           0x08061751   Thumb Code   110  etharp.o(.text)
    eth_device_init_with_flag                0x080618d9   Thumb Code   164  ethernetif.o(.text)
    eth_device_init                          0x0806197d   Thumb Code     4  ethernetif.o(.text)
    eth_device_ready                         0x08061981   Thumb Code    16  ethernetif.o(.text)
    eth_device_linkchange                    0x08061991   Thumb Code    76  ethernetif.o(.text)
    eth_system_device_init                   0x08061acd   Thumb Code   294  ethernetif.o(.text)
    __rt_ctype_table                         0x08061d39   Thumb Code    16  rt_ctype_table.o(.text)
    malloc                                   0x08061d49   Thumb Code    94  h1_alloc.o(.text)
    free                                     0x08061da7   Thumb Code    78  h1_free.o(.text)
    __2snprintf                              0x08061df5   Thumb Code    48  noretval__2snprintf.o(.text)
    _printf_pre_padding                      0x08061e29   Thumb Code    46  _printf_pad.o(.text)
    _printf_post_padding                     0x08061e57   Thumb Code    36  _printf_pad.o(.text)
    _printf_str                              0x08061e7b   Thumb Code    82  _printf_str.o(.text)
    _printf_int_dec                          0x08061ecd   Thumb Code   102  _printf_dec.o(.text)
    _printf_int_hex                          0x08061f45   Thumb Code    88  _printf_hex_int.o(.text)
    _printf_longlong_hex                     0x08061f45   Thumb Code     0  _printf_hex_int.o(.text)
    __printf                                 0x08061fa1   Thumb Code   310  __printf_flags_wp.o(.text)
    atoi                                     0x080620dd   Thumb Code    26  atoi.o(.text)
    strchr                                   0x080620f7   Thumb Code    20  strchr.o(.text)
    strncasecmp                              0x0806210b   Thumb Code    50  strncasecmp.o(.text)
    strcasecmp                               0x0806213d   Thumb Code    42  strcasecmp.o(.text)
    strlen                                   0x08062167   Thumb Code    62  strlen.o(.text)
    strncmp                                  0x080621a5   Thumb Code   150  strncmp.o(.text)
    __aeabi_memcpy                           0x0806223b   Thumb Code     0  rt_memcpy_v6.o(.text)
    __rt_memcpy                              0x0806223b   Thumb Code   138  rt_memcpy_v6.o(.text)
    _memcpy_lastbytes                        0x080622a1   Thumb Code     0  rt_memcpy_v6.o(.text)
    __aeabi_memcpy4                          0x080622c5   Thumb Code     0  rt_memcpy_w.o(.text)
    __aeabi_memcpy8                          0x080622c5   Thumb Code     0  rt_memcpy_w.o(.text)
    __rt_memcpy_w                            0x080622c5   Thumb Code   100  rt_memcpy_w.o(.text)
    _memcpy_lastbytes_aligned                0x0806230d   Thumb Code     0  rt_memcpy_w.o(.text)
    __aeabi_memclr                           0x08062329   Thumb Code     0  rt_memclr.o(.text)
    __rt_memclr                              0x08062329   Thumb Code    68  rt_memclr.o(.text)
    _memset                                  0x0806232d   Thumb Code     0  rt_memclr.o(.text)
    __aeabi_memclr4                          0x0806236d   Thumb Code     0  rt_memclr_w.o(.text)
    __aeabi_memclr8                          0x0806236d   Thumb Code     0  rt_memclr_w.o(.text)
    __rt_memclr_w                            0x0806236d   Thumb Code    78  rt_memclr_w.o(.text)
    _memset_w                                0x08062371   Thumb Code     0  rt_memclr_w.o(.text)
    strncpy                                  0x080623bb   Thumb Code    86  strncpy.o(.text)
    strcmp                                   0x08062411   Thumb Code   128  strcmpv7m.o(.text)
    localtime                                0x08062491   Thumb Code     6  localtime.o(.text)
    mktime                                   0x080624d3   Thumb Code   358  mktime.o(.text)
    _localtime_r                             0x08062641   Thumb Code   158  localtime_internal.o(.text)
    localtime_r                              0x08062641   Thumb Code     0  localtime_internal.o(.text)
    __use_two_region_memory                  0x080626e5   Thumb Code     2  heapauxi.o(.text)
    __rt_heap_escrow                         0x080626e7   Thumb Code     2  heapauxi.o(.text)
    __rt_heap_expand                         0x080626e9   Thumb Code     2  heapauxi.o(.text)
    __rt_heap_descriptor                     0x080626ed   Thumb Code     8  rt_heap_descriptor_intlibspace.o(.text)
    __rt_locale                              0x080626f5   Thumb Code     8  rt_locale_intlibspace.o(.text)
    __aeabi_errno_addr                       0x080626fd   Thumb Code     8  rt_errno_addr_intlibspace.o(.text)
    __errno$intlibspace                      0x080626fd   Thumb Code     0  rt_errno_addr_intlibspace.o(.text)
    __rt_errno_addr$intlibspace              0x080626fd   Thumb Code     0  rt_errno_addr_intlibspace.o(.text)
    __use_no_heap                            0x08062705   Thumb Code     2  hguard.o(.text)
    __heap$guard                             0x08062707   Thumb Code     2  hguard.o(.text)
    _terminate_user_alloc                    0x08062709   Thumb Code     2  init_alloc.o(.text)
    _init_user_alloc                         0x0806270b   Thumb Code     2  init_alloc.o(.text)
    __Heap_Full                              0x0806270d   Thumb Code    34  init_alloc.o(.text)
    __Heap_Broken                            0x0806272f   Thumb Code     6  init_alloc.o(.text)
    _init_alloc                              0x08062735   Thumb Code    94  init_alloc.o(.text)
    __Heap_Initialize                        0x08062793   Thumb Code    10  h1_init.o(.text)
    __Heap_DescSize                          0x0806279d   Thumb Code     4  h1_init.o(.text)
    tolower                                  0x080627a1   Thumb Code    26  tolower.o(.text)
    _printf_int_common                       0x080627bb   Thumb Code   184  _printf_intcommon.o(.text)
    _printf_char_common                      0x0806287f   Thumb Code    32  _printf_char_common.o(.text)
    _sputc                                   0x080628a5   Thumb Code    10  _sputc.o(.text)
    _snputc                                  0x080628af   Thumb Code    16  _snputc.o(.text)
    _printf_cs_common                        0x080628bf   Thumb Code    20  _printf_char.o(.text)
    _printf_char                             0x080628d3   Thumb Code    16  _printf_char.o(.text)
    _printf_string                           0x080628e3   Thumb Code     8  _printf_char.o(.text)
    strtol                                   0x080628eb   Thumb Code   112  strtol.o(.text)
    __user_libspace                          0x0806295d   Thumb Code     8  libspace.o(.text)
    __user_perproc_libspace                  0x0806295d   Thumb Code     0  libspace.o(.text)
    __user_perthread_libspace                0x0806295d   Thumb Code     0  libspace.o(.text)
    __Heap_ProvideMemory                     0x08062965   Thumb Code    52  h1_extend.o(.text)
    _strtoul                                 0x08062999   Thumb Code   158  _strtoul.o(.text)
    __rt_SIGRTMEM                            0x08062a37   Thumb Code    14  defsig_rtmem_outer.o(.text)
    __I$use$semihosting                      0x08062a45   Thumb Code     0  use_no_semi.o(.text)
    __use_no_semihosting_swi                 0x08062a45   Thumb Code     2  use_no_semi.o(.text)
    __semihosting_library_function           0x08062a47   Thumb Code     0  indicate_semi.o(.text)
    __user_setup_stackheap                   0x08062a47   Thumb Code    74  sys_stackheap_outer.o(.text)
    _chval                                   0x08062a91   Thumb Code    28  _chval.o(.text)
    exit                                     0x08062aad   Thumb Code    12  exit.o(.text)
    __sig_exit                               0x08062ab9   Thumb Code    10  defsig_exit.o(.text)
    __rt_SIGRTMEM_inner                      0x08062ac5   Thumb Code    22  defsig_rtmem_inner.o(.text)
    _sys_exit                                0x08062b15   Thumb Code     8  sys_exit.o(.text)
    __default_signal_display                 0x08062b21   Thumb Code    50  defsig_general.o(.text)
    _ttywrch                                 0x08062b53   Thumb Code    14  sys_wrch.o(.text)
    _is_digit                                0x08062b61   Thumb Code    14  __printf_wp.o(i._is_digit)
    _get_lc_ctype                            0x08062b71   Thumb Code    44  lc_ctype_c.o(locale$$code)
    UPGRADE_FLAG_FILE                        0x0806301a   Data           9  upgrade_flag.o(.constdata)
    rt_lowest_bitmap                         0x080639ee   Data         256  scheduler.o(.constdata)
    memp_sizes                               0x0806414a   Data          28  memp.o(.constdata)
    tcp_persist_backoff                      0x08064168   Data           7  tcp.o(.constdata)
    tcp_state_str                            0x08064170   Data          44  tcp.o(.constdata)
    tcp_backoff                              0x0806419c   Data          13  tcp.o(.constdata)
    tcp_pcb_lists                            0x080641ac   Data          16  tcp.o(.constdata)
    ip_addr_any                              0x08064214   Data           4  ip_addr.o(.constdata)
    ip_addr_broadcast                        0x08064218   Data           4  ip_addr.o(.constdata)
    ethbroadcast                             0x0806421c   Data           6  etharp.o(.constdata)
    ethzero                                  0x08064222   Data           6  etharp.o(.constdata)
    _monlen                                  0x080642e6   Data          12  _monlen.o(.constdata)
    Region$$Table$$Base                      0x080643a0   Number         0  anon$$obj.o(Region$$Table)
    Region$$Table$$Limit                     0x080643c0   Number         0  anon$$obj.o(Region$$Table)
    __ctype                                  0x080643cd   Data           0  lc_ctype_c.o(locale$$data)
    iwdg_net_feed_flag                       0x20000000   Data           4  3g_watchdog.o(.data)
    bootsh                                   0x2000000c   Data           4  bootcfg.o(.data)
    net_recv_fine_flag                       0x20000048   Data           1  net_app.o(.data)
    net_send_fine_flag                       0x20000049   Data           1  net_app.o(.data)
    lenght                                   0x20000058   Data           4  net_app.o(.data)
    SystemCoreClock                          0x20000070   Data           4  system_stm32f2xx.o(.data)
    AHBPrescTable                            0x20000074   Data          16  system_stm32f2xx.o(.data)
    station_startup_mode                     0x20000084   Data           4  upgrade_flag.o(.data)
    uart1                                    0x20000098   Data           8  usart.o(.data)
    uart2                                    0x200000a0   Data           8  usart.o(.data)
    uart3                                    0x200000a8   Data           8  usart.o(.data)
    uart4                                    0x200000b0   Data           8  usart.o(.data)
    uart5                                    0x200000b8   Data           8  usart.o(.data)
    DMATxDescToSet                           0x200000c8   Data           4  stm32f2xx_eth.o(.data)
    DMARxDescToGet                           0x200000cc   Data           4  stm32f2xx_eth.o(.data)
    DMAPTPTxDescToSet                        0x200000d0   Data           4  stm32f2xx_eth.o(.data)
    DMAPTPRxDescToGet                        0x200000d4   Data           4  stm32f2xx_eth.o(.data)
    AsynchPrediv                             0x200000e0   Data           4  stm32f2_rtc.o(.data)
    SynchPrediv                              0x200000e4   Data           4  stm32f2_rtc.o(.data)
    errorindex                               0x200000e8   Data           4  stm32f2_rtc.o(.data)
    i                                        0x200000ec   Data           4  stm32f2_rtc.o(.data)
    BKPDataReg                               0x200000f0   Data          80  stm32f2_rtc.o(.data)
    rt_interrupt_nest                        0x20000158   Data           1  irq.o(.data)
    rt_object_trytake_hook                   0x2000018c   Data           4  object.o(.data)
    rt_object_take_hook                      0x20000190   Data           4  object.o(.data)
    rt_object_put_hook                       0x20000194   Data           4  object.o(.data)
    rt_object_container                      0x20000198   Data         144  object.o(.data)
    rt_current_priority                      0x20000228   Data           1  scheduler.o(.data)
    rt_current_thread                        0x2000022c   Data           4  scheduler.o(.data)
    rt_thread_ready_priority_group           0x20000230   Data           4  scheduler.o(.data)
    rt_thread_defunct                        0x20000238   Data           8  scheduler.o(.data)
    rt_interrupt_from_thread                 0x20000250   Data           4  cpuport.o(.data)
    rt_interrupt_to_thread                   0x20000254   Data           4  cpuport.o(.data)
    rt_thread_switch_interrupt_flag          0x20000258   Data           4  cpuport.o(.data)
    working_directory                        0x2000025c   Data         256  dfs.o(.data)
    netif_list                               0x200003a4   Data           4  netif.o(.data)
    netif_default                            0x200003a8   Data           4  netif.o(.data)
    tcp_ticks                                0x200003bc   Data           4  tcp.o(.data)
    tcp_bound_pcbs                           0x200003c0   Data           4  tcp.o(.data)
    tcp_listen_pcbs                          0x200003c4   Data           4  tcp.o(.data)
    tcp_active_pcbs                          0x200003c8   Data           4  tcp.o(.data)
    tcp_tw_pcbs                              0x200003cc   Data           4  tcp.o(.data)
    tcp_tmp_pcb                              0x200003d0   Data           4  tcp.o(.data)
    tcp_input_pcb                            0x200003ec   Data           4  tcp_in.o(.data)
    udp_pcbs                                 0x200003f8   Data           4  udp.o(.data)
    current_netif                            0x20000400   Data           4  ip.o(.data)
    current_header                           0x20000404   Data           4  ip.o(.data)
    current_iphdr_src                        0x20000408   Data           4  ip.o(.data)
    current_iphdr_dest                       0x2000040c   Data           4  ip.o(.data)
    sys_option                               0x2000046c   Data          32  bootcfg.o(.bss)
    sys_option_sem                           0x2000048c   Data          32  bootcfg.o(.bss)
    bsmac_mq                                 0x20000c2c   Data          52  bsmac_parser.o(.bss)
    u8MbusPool                               0x200028d7   Data        4096  mbus_app.o(.bss)
    mbus_rec_mq                              0x200038d8   Data          52  mbus_app.o(.bss)
    mbus_reported_msg_pool                   0x2000390c   Data        8192  mbus_app.o(.bss)
    mbus_reported_mq                         0x2000590c   Data          52  mbus_app.o(.bss)
    msg_analyser_mq                          0x20005f54   Data          52  msg_center.o(.bss)
    u8MsgPool                                0x20006388   Data       10240  msg_center.o(.bss)
    net_mq                                   0x20008c98   Data          52  net_app.o(.bss)
    u8NetPool                                0x2000974c   Data       16384  net_app.o(.bss)
    uart1_int_rx                             0x2000d8c4   Data        1028  usart.o(.bss)
    serial1                                  0x2000dcc8   Data         124  usart.o(.bss)
    uart2_int_rx                             0x2000dd44   Data        1028  usart.o(.bss)
    serial2                                  0x2000e148   Data         124  usart.o(.bss)
    uart3_int_rx                             0x2000e1c4   Data        1028  usart.o(.bss)
    serial3                                  0x2000e5c8   Data         124  usart.o(.bss)
    uart4_int_rx                             0x2000e644   Data        1028  usart.o(.bss)
    serial4                                  0x2000ea48   Data         124  usart.o(.bss)
    uart5_int_rx                             0x2000eac4   Data        1028  usart.o(.bss)
    serial5                                  0x2000eec8   Data         124  usart.o(.bss)
    rt_thread_priority_table                 0x20011818   Data         256  scheduler.o(.bss)
    filesystem_operation_table               0x20011918   Data          16  dfs.o(.bss)
    filesystem_table                         0x20011928   Data          32  dfs.o(.bss)
    fd_table                                 0x2001196c   Data         128  dfs.o(.bss)
    dhcp_rx_options_val                      0x20011a4c   Data          40  dhcp.o(.bss)
    dhcp_rx_options_given                    0x20011a74   Data          10  dhcp.o(.bss)
    __libspace_start                         0x20012750   Data          96  libspace.o(.bss)
    __temporary_stack_top$libspace           0x200127b0   Data           0  libspace.o(.bss)
    Image$$RW_IRAM1$$ZI$$Limit               0x20012db0   Number         0  startup_stm32f2xx.o(STACK)



==============================================================================

Memory Map of the image

  Image Entry point : 0x08040185

  Load Region LR_IROM1 (Base: 0x08040000, Size: 0x000248e4, Max: 0x00040000, ABSOLUTE, COMPRESSED[0x000245b4])

    Execution Region ER_IROM1 (Base: 0x08040000, Size: 0x000244d0, Max: 0x00040000, ABSOLUTE)

    Base Addr    Size         Type   Attr      Idx    E Section Name        Object

    0x08040000   0x00000184   Data   RO          225    RESET               startup_stm32f2xx.o
    0x08040184   0x00000008   Code   RO          458  * !!!main             c_w.l(__main.o)
    0x0804018c   0x00000034   Code   RO          625    !!!scatter          c_w.l(__scatter.o)
    0x080401c0   0x0000005a   Code   RO          624    !!dczerorl2         c_w.l(__dczerorl2.o)
    0x0804021a   0x00000002   PAD
    0x0804021c   0x0000001c   Code   RO          626    !!handler_zi        c_w.l(__scatter_zi.o)
    0x08040238   0x00000000   Code   RO          440    .ARM.Collect$$_printf_percent$$00000000  c_w.l(_printf_percent.o)
    0x08040238   0x00000006   Code   RO          439    .ARM.Collect$$_printf_percent$$00000009  c_w.l(_printf_d.o)
    0x0804023e   0x00000006   Code   RO          438    .ARM.Collect$$_printf_percent$$0000000C  c_w.l(_printf_x.o)
    0x08040244   0x00000006   Code   RO          437    .ARM.Collect$$_printf_percent$$00000014  c_w.l(_printf_s.o)
    0x0804024a   0x00000004   Code   RO          486    .ARM.Collect$$_printf_percent$$00000017  c_w.l(_printf_percent_end.o)
    0x0804024e   0x00000002   Code   RO          580    .ARM.Collect$$libinit$$00000000  c_w.l(libinit.o)
    0x08040250   0x00000000   Code   RO          493    .ARM.Collect$$libinit$$00000002  c_w.l(libinit2.o)
    0x08040250   0x00000008   Code   RO          494    .ARM.Collect$$libinit$$00000003  c_w.l(libinit2.o)
    0x08040258   0x00000000   Code   RO          496    .ARM.Collect$$libinit$$00000008  c_w.l(libinit2.o)
    0x08040258   0x00000000   Code   RO          498    .ARM.Collect$$libinit$$0000000A  c_w.l(libinit2.o)
    0x08040258   0x00000000   Code   RO          500    .ARM.Collect$$libinit$$0000000C  c_w.l(libinit2.o)
    0x08040258   0x00000006   Code   RO          501    .ARM.Collect$$libinit$$0000000D  c_w.l(libinit2.o)
    0x0804025e   0x00000000   Code   RO          503    .ARM.Collect$$libinit$$0000000F  c_w.l(libinit2.o)
    0x0804025e   0x0000000c   Code   RO          504    .ARM.Collect$$libinit$$00000010  c_w.l(libinit2.o)
    0x0804026a   0x00000000   Code   RO          505    .ARM.Collect$$libinit$$00000011  c_w.l(libinit2.o)
    0x0804026a   0x00000000   Code   RO          507    .ARM.Collect$$libinit$$00000013  c_w.l(libinit2.o)
    0x0804026a   0x00000000   Code   RO          509    .ARM.Collect$$libinit$$00000015  c_w.l(libinit2.o)
    0x0804026a   0x00000000   Code   RO          511    .ARM.Collect$$libinit$$00000017  c_w.l(libinit2.o)
    0x0804026a   0x00000000   Code   RO          513    .ARM.Collect$$libinit$$00000019  c_w.l(libinit2.o)
    0x0804026a   0x00000000   Code   RO          515    .ARM.Collect$$libinit$$0000001B  c_w.l(libinit2.o)
    0x0804026a   0x00000000   Code   RO          517    .ARM.Collect$$libinit$$0000001D  c_w.l(libinit2.o)
    0x0804026a   0x00000000   Code   RO          519    .ARM.Collect$$libinit$$0000001F  c_w.l(libinit2.o)
    0x0804026a   0x00000000   Code   RO          521    .ARM.Collect$$libinit$$00000021  c_w.l(libinit2.o)
    0x0804026a   0x00000000   Code   RO          523    .ARM.Collect$$libinit$$00000023  c_w.l(libinit2.o)
    0x0804026a   0x00000000   Code   RO          527    .ARM.Collect$$libinit$$0000002A  c_w.l(libinit2.o)
    0x0804026a   0x00000000   Code   RO          529    .ARM.Collect$$libinit$$0000002C  c_w.l(libinit2.o)
    0x0804026a   0x00000000   Code   RO          531    .ARM.Collect$$libinit$$0000002E  c_w.l(libinit2.o)
    0x0804026a   0x00000000   Code   RO          533    .ARM.Collect$$libinit$$00000030  c_w.l(libinit2.o)
    0x0804026a   0x00000002   Code   RO          534    .ARM.Collect$$libinit$$00000031  c_w.l(libinit2.o)
    0x0804026c   0x00000002   Code   RO          621    .ARM.Collect$$libshutdown$$00000000  c_w.l(libshutdown.o)
    0x0804026e   0x00000000   Code   RO          590    .ARM.Collect$$libshutdown$$00000003  c_w.l(libshutdown2.o)
    0x0804026e   0x00000000   Code   RO          593    .ARM.Collect$$libshutdown$$00000006  c_w.l(libshutdown2.o)
    0x0804026e   0x00000000   Code   RO          596    .ARM.Collect$$libshutdown$$00000009  c_w.l(libshutdown2.o)
    0x0804026e   0x00000000   Code   RO          598    .ARM.Collect$$libshutdown$$0000000B  c_w.l(libshutdown2.o)
    0x0804026e   0x00000000   Code   RO          601    .ARM.Collect$$libshutdown$$0000000E  c_w.l(libshutdown2.o)
    0x0804026e   0x00000002   Code   RO          602    .ARM.Collect$$libshutdown$$0000000F  c_w.l(libshutdown2.o)
    0x08040270   0x00000000   Code   RO          460    .ARM.Collect$$rtentry$$00000000  c_w.l(rtentry.o)
    0x08040270   0x00000000   Code   RO          539    .ARM.Collect$$rtentry$$00000002  c_w.l(rtentry2.o)
    0x08040270   0x00000006   Code   RO          551    .ARM.Collect$$rtentry$$00000004  c_w.l(rtentry4.o)
    0x08040276   0x00000000   Code   RO          541    .ARM.Collect$$rtentry$$00000009  c_w.l(rtentry2.o)
    0x08040276   0x00000004   Code   RO          542    .ARM.Collect$$rtentry$$0000000A  c_w.l(rtentry2.o)
    0x0804027a   0x00000000   Code   RO          544    .ARM.Collect$$rtentry$$0000000C  c_w.l(rtentry2.o)
    0x0804027a   0x00000008   Code   RO          545    .ARM.Collect$$rtentry$$0000000D  c_w.l(rtentry2.o)
    0x08040282   0x00000002   Code   RO          582    .ARM.Collect$$rtexit$$00000000  c_w.l(rtexit.o)
    0x08040284   0x00000000   Code   RO          605    .ARM.Collect$$rtexit$$00000002  c_w.l(rtexit2.o)
    0x08040284   0x00000004   Code   RO          606    .ARM.Collect$$rtexit$$00000003  c_w.l(rtexit2.o)
    0x08040288   0x00000006   Code   RO          607    .ARM.Collect$$rtexit$$00000004  c_w.l(rtexit2.o)
    0x0804028e   0x00000002   PAD
    0x08040290   0x00000000   Code   RO          554    .emb_text           c_w.l(maybetermalloc1.o)
    0x08040290   0x000001a8   Code   RO            5    .text               3g_watchdog.o
    0x08040438   0x0000019c   Code   RO           11    .text               application.o
    0x080405d4   0x00000d98   Code   RO           14    .text               bootcfg.o
    0x0804136c   0x00000edc   Code   RO           21    .text               bsmac_parser.o
    0x08042248   0x000000d4   Code   RO           27    .text               led_indicator.o
    0x0804231c   0x000001d4   Code   RO           29    .text               location_data.o
    0x080424f0   0x00001574   Code   RO           35    .text               mbus_app.o
    0x08043a64   0x00000100   Code   RO           39    .text               msg_center.o
    0x08043b64   0x00001644   Code   RO           46    .text               net_app.o
    0x080451a8   0x00000120   Code   RO           55    .text               startup.o
    0x080452c8   0x0000015c   Code   RO           58    .text               system_stm32f2xx.o
    0x08045424   0x00000204   Code   RO           60    .text               upgrade_flag.o
    0x08045628   0x00000348   Code   RO           65    .text               board.o
    0x08045970   0x000001d8   Code   RO           68    .text               platform.o
    0x08045b48   0x00000624   Code   RO           73    .text               usart.o
    0x0804616c   0x0000006e   Code   RO           82    .text               stm32f2xx_it.o
    0x080461da   0x00000002   PAD
    0x080461dc   0x000001a8   Code   RO           85    .text               stm32_flash.o
    0x08046384   0x00001f68   Code   RO           88    .text               stm32f2xx_eth.o
    0x080482ec   0x00000230   Code   RO           93    .text               stm32f20x_40x_spi.o
    0x0804851c   0x00000578   Code   RO           95    .text               spi_flash_w25qxx.o
    0x08048a94   0x000003a0   Code   RO          100    .text               stm32f2_rtc.o
    0x08048e34   0x000001ac   Code   RO          107    .text               misc.o
    0x08048fe0   0x00000278   Code   RO          150    .text               stm32f2xx_exti.o
    0x08049258   0x000005c0   Code   RO          154    .text               stm32f2xx_flash.o
    0x08049818   0x000007d4   Code   RO          162    .text               stm32f2xx_gpio.o
    0x08049fec   0x000000a0   Code   RO          180    .text               stm32f2xx_iwdg.o
    0x0804a08c   0x000001a4   Code   RO          184    .text               stm32f2xx_pwr.o
    0x0804a230   0x00000ac8   Code   RO          188    .text               stm32f2xx_rcc.o
    0x0804acf8   0x00000f6c   Code   RO          197    .text               stm32f2xx_rtc.o
    0x0804bc64   0x00000840   Code   RO          205    .text               stm32f2xx_spi.o
    0x0804c4a4   0x00000120   Code   RO          209    .text               stm32f2xx_syscfg.o
    0x0804c5c4   0x00000c7c   Code   RO          217    .text               stm32f2xx_usart.o
    0x0804d240   0x00000040   Code   RO          226    .text               startup_stm32f2xx.o
    0x0804d280   0x00000030   Code   RO          227    .text               crc.o
    0x0804d2b0   0x00000060   Code   RO          229    .text               clock.o
    0x0804d310   0x00000380   Code   RO          231    .text               device.o
    0x0804d690   0x00000148   Code   RO          233    .text               idle.o
    0x0804d7d8   0x000015b0   Code   RO          237    .text               ipc.o
    0x0804ed88   0x00000038   Code   RO          239    .text               irq.o
    0x0804edc0   0x00000738   Code   RO          241    .text               kservice.o
    0x0804f4f8   0x00000764   Code   RO          245    .text               mem.o
    0x0804fc5c   0x000002f0   Code   RO          252    .text               object.o
    0x0804ff4c   0x000002f4   Code   RO          255    .text               scheduler.o
    0x08050240   0x00000638   Code   RO          259    .text               thread.o
    0x08050878   0x000003a0   Code   RO          261    .text               timer.o
    0x08050c18   0x00000498   Code   RO          264    .text               cpuport.o
    0x080510b0   0x000000c4   Code   RO          270    .text               context_rvds.o
    0x08051174   0x00000370   Code   RO          275    .text               dfs.o
    0x080514e4   0x00000484   Code   RO          279    .text               dfs_fs.o
    0x08051968   0x00000348   Code   RO          281    .text               dfs_file.o
    0x08051cb0   0x000004ac   Code   RO          282    .text               dfs_posix.o
    0x0805215c   0x000007c4   Code   RO          283    .text               dfs_elm.o
    0x08052920   0x00001f74   Code   RO          287    .text               ff.o
    0x08054894   0x000000ec   Code   RO          290    .text               rtc.o
    0x08054980   0x00000522   Code   RO          292    .text               serial.o
    0x08054ea2   0x00000002   PAD
    0x08054ea4   0x0000063c   Code   RO          294    .text               spi_core.o
    0x080554e0   0x00000330   Code   RO          296    .text               spi_dev.o
    0x08055810   0x00000488   Code   RO          300    .text               dataqueue.o
    0x08055c98   0x00000034   Code   RO          307    .text               components.o
    0x08055ccc   0x00000a14   Code   RO          308    .text               api_lib.o
    0x080566e0   0x00001468   Code   RO          309    .text               api_msg.o
    0x08057b48   0x00000310   Code   RO          310    .text               netbuf.o
    0x08057e58   0x000000ca   Code   RO          314    .text               netifapi.o
    0x08057f22   0x00000002   PAD
    0x08057f24   0x00001554   Code   RO          315    .text               sockets.o
    0x08059478   0x0000030c   Code   RO          319    .text               tcpip.o
    0x08059784   0x00000724   Code   RO          321    .text               sys_arch.o
    0x08059ea8   0x00000010   Code   RO          324    .text               def.o
    0x08059eb8   0x00001564   Code   RO          325    .text               dhcp.o
    0x0805b41c   0x00000618   Code   RO          329    .text               dns.o
    0x0805ba34   0x0000001a   Code   RO          332    .text               init.o
    0x0805ba4e   0x00000002   PAD
    0x0805ba50   0x0000024c   Code   RO          334    .text               netif.o
    0x0805bc9c   0x00000cb6   Code   RO          336    .text               pbuf.o
    0x0805c952   0x00000002   PAD
    0x0805c954   0x000001e0   Code   RO          338    .text               raw.o
    0x0805cb34   0x00000e14   Code   RO          341    .text               tcp.o
    0x0805d948   0x000014d0   Code   RO          345    .text               tcp_in.o
    0x0805ee18   0x00000f44   Code   RO          348    .text               tcp_out.o
    0x0805fd5c   0x00000278   Code   RO          350    .text               timers.o
    0x0805ffd4   0x00000460   Code   RO          352    .text               udp.o
    0x08060434   0x0000033c   Code   RO          354    .text               icmp.o
    0x08060770   0x00000230   Code   RO          355    .text               inet_chksum.o
    0x080609a0   0x00000328   Code   RO          356    .text               ip.o
    0x08060cc8   0x00000238   Code   RO          358    .text               ip_addr.o
    0x08060f00   0x0000096c   Code   RO          362    .text               etharp.o
    0x0806186c   0x000004cc   Code   RO          366    .text               ethernetif.o
    0x08061d38   0x00000010   Code   RO          371    .text               c_w.l(rt_ctype_table.o)
    0x08061d48   0x0000005e   Code   RO          374    .text               c_w.l(h1_alloc.o)
    0x08061da6   0x0000004e   Code   RO          375    .text               c_w.l(h1_free.o)
    0x08061df4   0x00000034   Code   RO          405    .text               c_w.l(noretval__2snprintf.o)
    0x08061e28   0x00000052   Code   RO          407    .text               c_w.l(_printf_pad.o)
    0x08061e7a   0x00000052   Code   RO          408    .text               c_w.l(_printf_str.o)
    0x08061ecc   0x00000078   Code   RO          409    .text               c_w.l(_printf_dec.o)
    0x08061f44   0x0000005c   Code   RO          412    .text               c_w.l(_printf_hex_int.o)
    0x08061fa0   0x0000013c   Code   RO          432    .text               c_w.l(__printf_flags_wp.o)
    0x080620dc   0x0000001a   Code   RO          441    .text               c_w.l(atoi.o)
    0x080620f6   0x00000014   Code   RO          442    .text               c_w.l(strchr.o)
    0x0806210a   0x00000032   Code   RO          443    .text               c_w.l(strncasecmp.o)
    0x0806213c   0x0000002a   Code   RO          444    .text               c_w.l(strcasecmp.o)
    0x08062166   0x0000003e   Code   RO          445    .text               c_w.l(strlen.o)
    0x080621a4   0x00000096   Code   RO          446    .text               c_w.l(strncmp.o)
    0x0806223a   0x0000008a   Code   RO          447    .text               c_w.l(rt_memcpy_v6.o)
    0x080622c4   0x00000064   Code   RO          448    .text               c_w.l(rt_memcpy_w.o)
    0x08062328   0x00000044   Code   RO          449    .text               c_w.l(rt_memclr.o)
    0x0806236c   0x0000004e   Code   RO          450    .text               c_w.l(rt_memclr_w.o)
    0x080623ba   0x00000056   Code   RO          451    .text               c_w.l(strncpy.o)
    0x08062410   0x00000080   Code   RO          452    .text               c_w.l(strcmpv7m.o)
    0x08062490   0x0000000c   Code   RO          453    .text               c_w.l(localtime.o)
    0x0806249c   0x000001a4   Code   RO          455    .text               c_w.l(mktime.o)
    0x08062640   0x000000a4   Code   RO          456    .text               c_w.l(localtime_internal.o)
    0x080626e4   0x00000006   Code   RO          457    .text               c_w.l(heapauxi.o)
    0x080626ea   0x00000002   PAD
    0x080626ec   0x00000008   Code   RO          463    .text               c_w.l(rt_heap_descriptor_intlibspace.o)
    0x080626f4   0x00000008   Code   RO          466    .text               c_w.l(rt_locale_intlibspace.o)
    0x080626fc   0x00000008   Code   RO          469    .text               c_w.l(rt_errno_addr_intlibspace.o)
    0x08062704   0x00000004   Code   RO          470    .text               c_w.l(hguard.o)
    0x08062708   0x0000008a   Code   RO          471    .text               c_w.l(init_alloc.o)
    0x08062792   0x0000000e   Code   RO          473    .text               c_w.l(h1_init.o)
    0x080627a0   0x0000001a   Code   RO          480    .text               c_w.l(tolower.o)
    0x080627ba   0x000000b8   Code   RO          481    .text               c_w.l(_printf_intcommon.o)
    0x08062872   0x00000002   PAD
    0x08062874   0x00000030   Code   RO          482    .text               c_w.l(_printf_char_common.o)
    0x080628a4   0x0000000a   Code   RO          483    .text               c_w.l(_sputc.o)
    0x080628ae   0x00000010   Code   RO          484    .text               c_w.l(_snputc.o)
    0x080628be   0x0000002c   Code   RO          485    .text               c_w.l(_printf_char.o)
    0x080628ea   0x00000070   Code   RO          487    .text               c_w.l(strtol.o)
    0x0806295a   0x00000002   PAD
    0x0806295c   0x00000008   Code   RO          536    .text               c_w.l(libspace.o)
    0x08062964   0x00000034   Code   RO          556    .text               c_w.l(h1_extend.o)
    0x08062998   0x0000009e   Code   RO          559    .text               c_w.l(_strtoul.o)
    0x08062a36   0x0000000e   Code   RO          560    .text               c_w.l(defsig_rtmem_outer.o)
    0x08062a44   0x00000002   Code   RO          566    .text               c_w.l(use_no_semi.o)
    0x08062a46   0x00000000   Code   RO          567    .text               c_w.l(indicate_semi.o)
    0x08062a46   0x0000004a   Code   RO          568    .text               c_w.l(sys_stackheap_outer.o)
    0x08062a90   0x0000001c   Code   RO          571    .text               c_w.l(_chval.o)
    0x08062aac   0x0000000c   Code   RO          572    .text               c_w.l(exit.o)
    0x08062ab8   0x0000000a   Code   RO          573    .text               c_w.l(defsig_exit.o)
    0x08062ac2   0x00000002   PAD
    0x08062ac4   0x00000050   Code   RO          574    .text               c_w.l(defsig_rtmem_inner.o)
    0x08062b14   0x0000000c   Code   RO          581    .text               c_w.l(sys_exit.o)
    0x08062b20   0x00000032   Code   RO          587    .text               c_w.l(defsig_general.o)
    0x08062b52   0x0000000e   Code   RO          603    .text               c_w.l(sys_wrch.o)
    0x08062b60   0x0000000e   Code   RO          431    i._is_digit         c_w.l(__printf_wp.o)
    0x08062b6e   0x00000002   PAD
    0x08062b70   0x0000002c   Code   RO          489    locale$$code        c_w.l(lc_ctype_c.o)
    0x08062b9c   0x000000bc   Data   RO           16    .constdata          bootcfg.o
    0x08062c58   0x0000002a   Data   RO           23    .constdata          bsmac_parser.o
    0x08062c82   0x00000013   Data   RO           31    .constdata          location_data.o
    0x08062c95   0x00000191   Data   RO           37    .constdata          mbus_app.o
    0x08062e26   0x00000018   Data   RO           42    .constdata          msg_center.o
    0x08062e3e   0x00000002   PAD
    0x08062e40   0x000001da   Data   RO           49    .constdata          net_app.o
    0x0806301a   0x0000002e   Data   RO           61    .constdata          upgrade_flag.o
    0x08063048   0x00000048   Data   RO           75    .constdata          usart.o
    0x08063090   0x0000003b   Data   RO           97    .constdata          spi_flash_w25qxx.o
    0x080630cb   0x0000000f   Data   RO          102    .constdata          stm32f2_rtc.o
    0x080630da   0x00000002   PAD
    0x080630dc   0x00000048   Data   RO          151    .constdata          stm32f2xx_exti.o
    0x08063124   0x00000048   Data   RO          155    .constdata          stm32f2xx_flash.o
    0x0806316c   0x00000048   Data   RO          163    .constdata          stm32f2xx_gpio.o
    0x080631b4   0x00000048   Data   RO          181    .constdata          stm32f2xx_iwdg.o
    0x080631fc   0x00000048   Data   RO          185    .constdata          stm32f2xx_pwr.o
    0x08063244   0x00000048   Data   RO          189    .constdata          stm32f2xx_rcc.o
    0x0806328c   0x00000048   Data   RO          198    .constdata          stm32f2xx_rtc.o
    0x080632d4   0x00000048   Data   RO          206    .constdata          stm32f2xx_spi.o
    0x0806331c   0x0000004c   Data   RO          210    .constdata          stm32f2xx_syscfg.o
    0x08063368   0x00000048   Data   RO          218    .constdata          stm32f2xx_usart.o
    0x080633b0   0x00000200   Data   RO          228    .constdata          crc.o
    0x080635b0   0x000000a8   Data   RO          232    .constdata          device.o
    0x08063658   0x00000016   Data   RO          235    .constdata          idle.o
    0x0806366e   0x000001c6   Data   RO          238    .constdata          ipc.o
    0x08063834   0x00000022   Data   RO          243    .constdata          kservice.o
    0x08063856   0x00000002   PAD
    0x08063858   0x00000138   Data   RO          247    .constdata          mem.o
    0x08063990   0x0000005e   Data   RO          253    .constdata          object.o
    0x080639ee   0x0000014e   Data   RO          257    .constdata          scheduler.o
    0x08063b3c   0x000000aa   Data   RO          260    .constdata          thread.o
    0x08063be6   0x0000005c   Data   RO          262    .constdata          timer.o
    0x08063c42   0x00000013   Data   RO          265    .constdata          cpuport.o
    0x08063c55   0x00000023   Data   RO          277    .constdata          dfs.o
    0x08063c78   0x0000001d   Data   RO          280    .constdata          dfs_fs.o
    0x08063c95   0x00000003   PAD
    0x08063c98   0x000000b9   Data   RO          284    .constdata          dfs_elm.o
    0x08063d51   0x00000001   PAD
    0x08063d52   0x0000002c   Data   RO          288    .constdata          ff.o
    0x08063d7e   0x00000086   Data   RO          293    .constdata          serial.o
    0x08063e04   0x000000a3   Data   RO          295    .constdata          spi_core.o
    0x08063ea7   0x000000d9   Data   RO          297    .constdata          spi_dev.o
    0x08063f80   0x0000004b   Data   RO          301    .constdata          dataqueue.o
    0x08063fcb   0x00000001   PAD
    0x08063fcc   0x00000040   Data   RO          317    .constdata          sockets.o
    0x0806400c   0x000000b3   Data   RO          322    .constdata          sys_arch.o
    0x080640bf   0x00000001   PAD
    0x080640c0   0x00000089   Data   RO          327    .constdata          dhcp.o
    0x08064149   0x00000001   PAD
    0x0806414a   0x0000001c   Data   RO          333    .constdata          memp.o
    0x08064166   0x00000002   PAD
    0x08064168   0x00000054   Data   RO          342    .constdata          tcp.o
    0x080641bc   0x00000055   Data   RO          349    .constdata          tcp_out.o
    0x08064211   0x00000003   PAD
    0x08064214   0x00000004   Data   RO          360    .constdata          ip_addr.o
    0x08064218   0x00000004   Data   RO          361    .constdata          ip_addr.o
    0x0806421c   0x00000050   Data   RO          364    .constdata          etharp.o
    0x0806426c   0x00000041   Data   RO          368    .constdata          ethernetif.o
    0x080642ad   0x00000028   Data   RO          413    .constdata          c_w.l(_printf_hex_int.o)
    0x080642d5   0x00000011   Data   RO          433    .constdata          c_w.l(__printf_flags_wp.o)
    0x080642e6   0x0000000c   Data   RO          490    .constdata          c_w.l(_monlen.o)
    0x080642f2   0x00000040   Data   RO           17    .conststring        bootcfg.o
    0x08064332   0x00000004   Data   RO          285    .conststring        dfs_elm.o
    0x08064336   0x00000068   Data   RO          343    .conststring        tcp.o
    0x0806439e   0x00000002   PAD
    0x080643a0   0x00000020   Data   RO          622    Region$$Table       anon$$obj.o
    0x080643c0   0x00000110   Data   RO          488    locale$$data        c_w.l(lc_ctype_c.o)


    Execution Region RW_IRAM1 (Base: 0x20000000, Size: 0x00012db0, Max: 0x00020000, ABSOLUTE, COMPRESSED[0x000000e4])

    Base Addr    Size         Type   Attr      Idx    E Section Name        Object

    0x20000000   0x00000004   Data   RW            7    .data               3g_watchdog.o
    0x20000004   0x00000004   Data   RW            8    .data               3g_watchdog.o
    0x20000008   0x00000008   Data   RW           18    .data               bootcfg.o
    0x20000010   0x00000014   Data   RW           24    .data               bsmac_parser.o
    0x20000024   0x0000000d   Data   RW           32    .data               location_data.o
    0x20000031   0x00000003   PAD
    0x20000034   0x00000010   Data   RW           38    .data               mbus_app.o
    0x20000044   0x00000004   Data   RW           43    .data               msg_center.o
    0x20000048   0x00000028   Data   RW           50    .data               net_app.o
    0x20000070   0x00000014   Data   RW           59    .data               system_stm32f2xx.o
    0x20000084   0x00000004   Data   RW           62    .data               upgrade_flag.o
    0x20000088   0x00000010   Data   RW           70    .data               platform.o
    0x20000098   0x00000028   Data   RW           76    .data               usart.o
    0x200000c0   0x00000018   Data   RW           90    .data               stm32f2xx_eth.o
    0x200000d8   0x00000008   Data   RW           94    .data               stm32f20x_40x_spi.o
    0x200000e0   0x00000060   Data   RW          103    .data               stm32f2_rtc.o
    0x20000140   0x00000010   Data   RW          190    .data               stm32f2xx_rcc.o
    0x20000150   0x00000004   Data   RW          230    .data               clock.o
    0x20000154   0x00000004   Data   RW          236    .data               idle.o
    0x20000158   0x00000001   Data   RW          240    .data               irq.o
    0x20000159   0x00000003   PAD
    0x2000015c   0x00000008   Data   RW          244    .data               kservice.o
    0x20000164   0x00000020   Data   RW          248    .data               mem.o
    0x20000184   0x000000a4   Data   RW          254    .data               object.o
    0x20000228   0x00000018   Data   RW          258    .data               scheduler.o
    0x20000240   0x0000000c   Data   RW          263    .data               timer.o
    0x2000024c   0x00000004   Data   RW          266    .data               cpuport.o
    0x20000250   0x00000004   Data   RW          267    .data               cpuport.o
    0x20000254   0x00000004   Data   RW          268    .data               cpuport.o
    0x20000258   0x00000004   Data   RW          269    .data               cpuport.o
    0x2000025c   0x00000100   Data   RW          278    .data               dfs.o
    0x2000035c   0x00000004   Data   RW          286    .data               dfs_elm.o
    0x20000360   0x00000008   Data   RW          289    .data               ff.o
    0x20000368   0x00000004   Data   RW          291    .data               rtc.o
    0x2000036c   0x00000008   Data   RW          318    .data               sockets.o
    0x20000374   0x0000000c   Data   RW          320    .data               tcpip.o
    0x20000380   0x00000006   Data   RW          323    .data               sys_arch.o
    0x20000386   0x00000002   PAD
    0x20000388   0x00000004   Data   RW          328    .data               dhcp.o
    0x2000038c   0x00000014   Data   RW          331    .data               dns.o
    0x200003a0   0x0000000c   Data   RW          335    .data               netif.o
    0x200003ac   0x00000001   Data   RW          337    .data               pbuf.o
    0x200003ad   0x00000003   PAD
    0x200003b0   0x00000004   Data   RW          339    .data               raw.o
    0x200003b4   0x00000020   Data   RW          344    .data               tcp.o
    0x200003d4   0x0000001c   Data   RW          347    .data               tcp_in.o
    0x200003f0   0x00000008   Data   RW          351    .data               timers.o
    0x200003f8   0x00000004   Data   RW          353    .data               udp.o
    0x200003fc   0x00000014   Data   RW          357    .data               ip.o
    0x20000410   0x00000001   Data   RW          365    .data               etharp.o
    0x20000411   0x00000003   PAD
    0x20000414   0x00000058   Zero   RW            6    .bss                3g_watchdog.o
    0x2000046c   0x00000040   Zero   RW           15    .bss                bootcfg.o
    0x200004ac   0x00001e6c   Zero   RW           22    .bss                bsmac_parser.o
    0x20002318   0x0000002c   Zero   RW           28    .bss                led_indicator.o
    0x20002344   0x00000094   Zero   RW           30    .bss                location_data.o
    0x200023d8   0x00003b66   Zero   RW           36    .bss                mbus_app.o
    0x20005f3e   0x00000002   PAD
    0x20005f40   0x00000448   Zero   RW           40    .bss                msg_center.o
    0x20006388   0x00002800   Zero   RW           41    .bss                msg_center.o
    0x20008b88   0x00000bc4   Zero   RW           47    .bss                net_app.o
    0x2000974c   0x00004000   Zero   RW           48    .bss                net_app.o
    0x2000d74c   0x00000178   Zero   RW           69    .bss                platform.o
    0x2000d8c4   0x00001680   Zero   RW           74    .bss                usart.o
    0x2000ef44   0x00002500   Zero   RW           89    .bss                stm32f2xx_eth.o
    0x20011444   0x00000074   Zero   RW           96    .bss                spi_flash_w25qxx.o
    0x200114b8   0x00000040   Zero   RW          101    .bss                stm32f2_rtc.o
    0x200114f8   0x00000280   Zero   RW          234    .bss                idle.o
    0x20011778   0x00000080   Zero   RW          242    .bss                kservice.o
    0x200117f8   0x00000020   Zero   RW          246    .bss                mem.o
    0x20011818   0x00000100   Zero   RW          256    .bss                scheduler.o
    0x20011918   0x000000d4   Zero   RW          276    .bss                dfs.o
    0x200119ec   0x00000060   Zero   RW          316    .bss                sockets.o
    0x20011a4c   0x00000032   Zero   RW          326    .bss                dhcp.o
    0x20011a7e   0x00000002   PAD
    0x20011a80   0x00000663   Zero   RW          330    .bss                dns.o
    0x200120e3   0x00000001   PAD
    0x200120e4   0x00000010   Zero   RW          346    .bss                tcp_in.o
    0x200120f4   0x00000010   Zero   RW          359    .bss                ip_addr.o
    0x20012104   0x000000a0   Zero   RW          363    .bss                etharp.o
    0x200121a4   0x00000580   Zero   RW          367    .bss                ethernetif.o
    0x20012724   0x0000002c   Zero   RW          454    .bss                c_w.l(localtime.o)
    0x20012750   0x00000060   Zero   RW          537    .bss                c_w.l(libspace.o)
    0x200127b0   0x00000200   Zero   RW          224    HEAP                startup_stm32f2xx.o
    0x200129b0   0x00000400   Zero   RW          223    STACK               startup_stm32f2xx.o


==============================================================================

Image component sizes


      Code (inc. data)   RO Data    RW Data    ZI Data      Debug   Object Name

       424         82          0          8         88          0   3g_watchdog.o
      2580        876          0          0          0          0   api_lib.o
      5224       1240          0          0          0          0   api_msg.o
       412        148          0          0          0          0   application.o
       840         40          0          0          0          0   board.o
      3480       1710        252          8         64          0   bootcfg.o
      3804        824         42         20       7788          0   bsmac_parser.o
        96          6          0          4          0          0   clock.o
        52         24          0          0          0          0   components.o
       196         20          0          0          0          0   context_rvds.o
      1176        590         19         16          0          0   cpuport.o
        48          6        512          0          0          0   crc.o
      1160        134         75          0          0          0   dataqueue.o
        16          0          0          0          0          0   def.o
       896        114        168          0          0          0   device.o
       880        102         35        256        212          0   dfs.o
      1988        212        189          4          0          0   dfs_elm.o
       840          6          0          0          0          0   dfs_file.o
      1156        216         29          0          0          0   dfs_fs.o
      1196         12          0          0          0          0   dfs_posix.o
      5476       1040        137          4         50          0   dhcp.o
      1560        250          0         20       1635          0   dns.o
      2412        528         80          1        160          0   etharp.o
      1228        326         65          0       1408          0   ethernetif.o
      8052        104         44          8          0          0   ff.o
       828        350          0          0          0          0   icmp.o
       328        100         22          4        640          0   idle.o
       560         78          0          0          0          0   inet_chksum.o
        26          0          0          0          0          0   init.o
       808        130          0         20          0          0   ip.o
       568         82          8          0         16          0   ip_addr.o
      5552        274        454          0          0          0   ipc.o
        56          6          0          1          0          0   irq.o
      1848        162         34          8        128          0   kservice.o
       212         46          0          0         44          0   led_indicator.o
       468         72         19         13        148          0   location_data.o
      5492       1526        401         16      15206          0   mbus_app.o
      1892        432        312         32         32          0   mem.o
         0          0         28          0          0          0   memp.o
       428         84          0          0          0          0   misc.o
       256         94         24          4      11336          0   msg_center.o
      5700       1778        474         40      19396          0   net_app.o
       784        320          0          0          0          0   netbuf.o
       588         92          0         12          0          0   netif.o
       202          0          0          0          0          0   netifapi.o
       752        148         94        164          0          0   object.o
      3254       1150          0          1          0          0   pbuf.o
       472         72          0         16        376          0   platform.o
       480        108          0          4          0          0   raw.o
       236          8          0          4          0          0   rtc.o
       756        158        334         24        256          0   scheduler.o
      1314        184        134          0          0          0   serial.o
      5460        624         64          8         96          0   sockets.o
      1596        120        163          0          0          0   spi_core.o
       816        170        217          0          0          0   spi_dev.o
      1400        466         59          0        116          0   spi_flash_w25qxx.o
       288        130          0          0          0          0   startup.o
        64         26        388          0       1536          0   startup_stm32f2xx.o
       424         50          0          0          0          0   stm32_flash.o
       560         28          0          8          0          0   stm32f20x_40x_spi.o
       928        292         15         96         64          0   stm32f2_rtc.o
      8040        300          0         24       9472          0   stm32f2xx_eth.o
       632         12         72          0          0          0   stm32f2xx_exti.o
      1472         42         72          0          0          0   stm32f2xx_flash.o
      2004         82         72          0          0          0   stm32f2xx_gpio.o
       110          0          0          0          0          0   stm32f2xx_it.o
       160          8         72          0          0          0   stm32f2xx_iwdg.o
       420         18         72          0          0          0   stm32f2xx_pwr.o
      2760        226         72         16          0          0   stm32f2xx_rcc.o
      3948         58         72          0          0          0   stm32f2xx_rtc.o
      2112         44         72          0          0          0   stm32f2xx_spi.o
       288         16         76          0          0          0   stm32f2xx_syscfg.o
      3196         96         72          0          0          0   stm32f2xx_usart.o
      1828        324        179          6          0          0   sys_arch.o
       348         40          0         20          0          0   system_stm32f2xx.o
      3604        804        188         32          0          0   tcp.o
      5328        840          0         28         16          0   tcp_in.o
      3908        802         85          0          0          0   tcp_out.o
       780        156          0         12          0          0   tcpip.o
      1592        214        170          0          0          0   thread.o
       928        106         92         12          0          0   timer.o
       632        158          0          8          0          0   timers.o
      1120        168          0          4          0          0   udp.o
       516        160         46          4          0          0   upgrade_flag.o
      1572        178         72         40       5760          0   usart.o

    ----------------------------------------------------------------------
    137896      22822       6499       1044      76048          0   Object Totals
         0          0         32          0          0          0   (incl. Generated)
        10          0         20         14          5          0   (incl. Padding)

    ----------------------------------------------------------------------

      Code (inc. data)   RO Data    RW Data    ZI Data      Debug   Library Member Name

        90          0          0          0          0          0   __dczerorl2.o
         8          0          0          0          0          0   __main.o
       316          6         17          0          0          0   __printf_flags_wp.o
        14          0          0          0          0          0   __printf_wp.o
        52          8          0          0          0          0   __scatter.o
        28          0          0          0          0          0   __scatter_zi.o
        28          0          0          0          0          0   _chval.o
         0          0         12          0          0          0   _monlen.o
        44          0          0          0          0          0   _printf_char.o
        48          6          0          0          0          0   _printf_char_common.o
         6          0          0          0          0          0   _printf_d.o
       120         18          0          0          0          0   _printf_dec.o
        92          4         40          0          0          0   _printf_hex_int.o
       184          0          0          0          0          0   _printf_intcommon.o
        82          0          0          0          0          0   _printf_pad.o
         0          0          0          0          0          0   _printf_percent.o
         4          0          0          0          0          0   _printf_percent_end.o
         6          0          0          0          0          0   _printf_s.o
        82          0          0          0          0          0   _printf_str.o
         6          0          0          0          0          0   _printf_x.o
        16          0          0          0          0          0   _snputc.o
        10          0          0          0          0          0   _sputc.o
       158          0          0          0          0          0   _strtoul.o
        26          0          0          0          0          0   atoi.o
        10          0          0          0          0          0   defsig_exit.o
        50          0          0          0          0          0   defsig_general.o
        80         58          0          0          0          0   defsig_rtmem_inner.o
        14          0          0          0          0          0   defsig_rtmem_outer.o
        12          0          0          0          0          0   exit.o
        94          0          0          0          0          0   h1_alloc.o
        52          0          0          0          0          0   h1_extend.o
        78          0          0          0          0          0   h1_free.o
        14          0          0          0          0          0   h1_init.o
         6          0          0          0          0          0   heapauxi.o
         4          0          0          0          0          0   hguard.o
         0          0          0          0          0          0   indicate_semi.o
       138          0          0          0          0          0   init_alloc.o
        44         10        272          0          0          0   lc_ctype_c.o
         2          0          0          0          0          0   libinit.o
        28          0          0          0          0          0   libinit2.o
         2          0          0          0          0          0   libshutdown.o
         2          0          0          0          0          0   libshutdown2.o
         8          4          0          0         96          0   libspace.o
        12          6          0          0         44          0   localtime.o
       164          6          0          0          0          0   localtime_internal.o
         0          0          0          0          0          0   maybetermalloc1.o
       420          8          0          0          0          0   mktime.o
        52          4          0          0          0          0   noretval__2snprintf.o
        16          4          0          0          0          0   rt_ctype_table.o
         8          4          0          0          0          0   rt_errno_addr_intlibspace.o
         8          4          0          0          0          0   rt_heap_descriptor_intlibspace.o
         8          4          0          0          0          0   rt_locale_intlibspace.o
        68          0          0          0          0          0   rt_memclr.o
        78          0          0          0          0          0   rt_memclr_w.o
       138          0          0          0          0          0   rt_memcpy_v6.o
       100          0          0          0          0          0   rt_memcpy_w.o
         0          0          0          0          0          0   rtentry.o
        12          0          0          0          0          0   rtentry2.o
         6          0          0          0          0          0   rtentry4.o
         2          0          0          0          0          0   rtexit.o
        10          0          0          0          0          0   rtexit2.o
        42          0          0          0          0          0   strcasecmp.o
        20          0          0          0          0          0   strchr.o
       128          0          0          0          0          0   strcmpv7m.o
        62          0          0          0          0          0   strlen.o
        50          0          0          0          0          0   strncasecmp.o
       150          0          0          0          0          0   strncmp.o
        86          0          0          0          0          0   strncpy.o
       112          0          0          0          0          0   strtol.o
        12          4          0          0          0          0   sys_exit.o
        74          0          0          0          0          0   sys_stackheap_outer.o
        14          0          0          0          0          0   sys_wrch.o
        26          0          0          0          0          0   tolower.o
         2          0          0          0          0          0   use_no_semi.o

    ----------------------------------------------------------------------
      3952        158        341          0        140          0   Library Totals
        14          0          0          0          0          0   (incl. Padding)

    ----------------------------------------------------------------------

      Code (inc. data)   RO Data    RW Data    ZI Data      Debug   Library Name

      3938        158        341          0        140          0   c_w.l

    ----------------------------------------------------------------------
      3952        158        341          0        140          0   Library Totals

    ----------------------------------------------------------------------

==============================================================================


      Code (inc. data)   RO Data    RW Data    ZI Data      Debug   

    141848      22980       6840       1044      76188          0   Grand Totals
    141848      22980       6840        228      76188          0   ELF Image Totals (compressed)
    141848      22980       6840        228          0          0   ROM Totals

==============================================================================

    Total RO  Size (Code + RO Data)               148688 ( 145.20kB)
    Total RW  Size (RW Data + ZI Data)             77232 (  75.42kB)
    Total ROM Size (Code + RO Data + RW Data)     148916 ( 145.43kB)

==============================================================================

